---
triple:          'arm64-apple-darwin'
binary-path:     '/Users/administratorregula/builds/3/CrossPlatform_LivenessSources/build_ios/iphoneos/Liveness/Release-iphoneos/Liveness.framework/Liveness'
relocations:
  - { offset: 0x444A, size: 0x8, addend: 0x0, symName: __ZNSt3__124__put_character_sequenceB8ne180100IcNS_11char_traitsIcEEEERNS_13basic_ostreamIT_T0_EES7_PKS4_m, symObjAddr: 0xD94, symBinAddr: 0x4A98, symSize: 0x164 }
  - { offset: 0x5C54, size: 0x8, addend: 0x0, symName: __ZNSt3__120__throw_length_errorB8ne180100EPKc, symObjAddr: 0xD20, symBinAddr: 0x4A24, symSize: 0x50 }
  - { offset: 0x614E, size: 0x8, addend: 0x0, symName: __ZNSt3__116__pad_and_outputB8ne180100IcNS_11char_traitsIcEEEENS_19ostreambuf_iteratorIT_T0_EES6_PKS4_S8_S8_RNS_8ios_baseES4_, symObjAddr: 0xEF8, symBinAddr: 0x4BFC, symSize: 0x1A4 }
  - { offset: 0x7F15, size: 0x8, addend: 0x0, symName: __ZNSt3__112basic_stringIcNS_11char_traitsIcEENS_9allocatorIcEEE25__init_copy_ctor_externalEPKcm, symObjAddr: 0xC80, symBinAddr: 0x4984, symSize: 0x8C }
  - { offset: 0x827A, size: 0x8, addend: 0x0, symName: __ZNKSt3__112basic_stringIcNS_11char_traitsIcEENS_9allocatorIcEEE20__throw_length_errorB8ne180100Ev, symObjAddr: 0xD0C, symBinAddr: 0x4A10, symSize: 0x14 }
  - { offset: 0x82A4, size: 0x8, addend: 0x0, symName: __ZN6common5Timer5resetEv, symObjAddr: 0x64, symBinAddr: 0x4000, symSize: 0x30 }
  - { offset: 0x8325, size: 0x8, addend: 0x0, symName: __ZN6common5TimerC1ERKNSt3__112basic_stringIcNS1_11char_traitsIcEENS1_9allocatorIcEEEE, symObjAddr: 0x94, symBinAddr: 0x4030, symSize: 0x64 }
  - { offset: 0x8493, size: 0x8, addend: 0x0, symName: __ZN6common5Timer5clearEv, symObjAddr: 0xF8, symBinAddr: 0x4094, symSize: 0xC }
  - { offset: 0x84B3, size: 0x8, addend: 0x0, symName: __ZN6common5Timer5startEv, symObjAddr: 0x104, symBinAddr: 0x40A0, symSize: 0x2C }
  - { offset: 0x85C1, size: 0x8, addend: 0x0, symName: __ZNK6common5Timer14getTimeDeltaMsEv, symObjAddr: 0x130, symBinAddr: 0x40CC, symSize: 0x64 }
  - { offset: 0x8951, size: 0x8, addend: 0x0, symName: __ZNKSt3__115basic_stringbufIcNS_11char_traitsIcEENS_9allocatorIcEEE3strEv, symObjAddr: 0x109C, symBinAddr: 0x4DA0, symSize: 0x258 }
  - { offset: 0x8FA4, size: 0x8, addend: 0x0, symName: __ZNSt3__118basic_stringstreamIcNS_11char_traitsIcEENS_9allocatorIcEEED1Ev, symObjAddr: 0x3A4, symBinAddr: 0x4130, symSize: 0x94 }
  - { offset: 0x9137, size: 0x8, addend: 0x0, symName: __ZN6common5Timer4stopEv, symObjAddr: 0x438, symBinAddr: 0x41C4, symSize: 0x70 }
  - { offset: 0x9292, size: 0x8, addend: 0x0, symName: __ZThn16_NSt3__118basic_stringstreamIcNS_11char_traitsIcEENS_9allocatorIcEEED1Ev, symObjAddr: 0x540, symBinAddr: 0x4244, symSize: 0x8C }
  - { offset: 0x943A, size: 0x8, addend: 0x0, symName: __ZTv0_n24_NSt3__118basic_stringstreamIcNS_11char_traitsIcEENS_9allocatorIcEEED1Ev, symObjAddr: 0x5CC, symBinAddr: 0x42D0, symSize: 0x94 }
  - { offset: 0x95E0, size: 0x8, addend: 0x0, symName: __ZNSt3__118basic_stringstreamIcNS_11char_traitsIcEENS_9allocatorIcEEED0Ev, symObjAddr: 0x660, symBinAddr: 0x4364, symSize: 0x94 }
  - { offset: 0x97AB, size: 0x8, addend: 0x0, symName: __ZThn16_NSt3__118basic_stringstreamIcNS_11char_traitsIcEENS_9allocatorIcEEED0Ev, symObjAddr: 0x6F4, symBinAddr: 0x43F8, symSize: 0x94 }
  - { offset: 0x9971, size: 0x8, addend: 0x0, symName: __ZTv0_n24_NSt3__118basic_stringstreamIcNS_11char_traitsIcEENS_9allocatorIcEEED0Ev, symObjAddr: 0x788, symBinAddr: 0x448C, symSize: 0x9C }
  - { offset: 0x9B33, size: 0x8, addend: 0x0, symName: __ZNSt3__115basic_stringbufIcNS_11char_traitsIcEENS_9allocatorIcEEED1Ev, symObjAddr: 0x824, symBinAddr: 0x4528, symSize: 0x50 }
  - { offset: 0x9C8B, size: 0x8, addend: 0x0, symName: __ZNSt3__115basic_stringbufIcNS_11char_traitsIcEENS_9allocatorIcEEED0Ev, symObjAddr: 0x874, symBinAddr: 0x4578, symSize: 0x58 }
  - { offset: 0x9F2E, size: 0x8, addend: 0x0, symName: __ZNSt3__115basic_stringbufIcNS_11char_traitsIcEENS_9allocatorIcEEE7seekoffExNS_8ios_base7seekdirEj, symObjAddr: 0x8CC, symBinAddr: 0x45D0, symSize: 0x124 }
  - { offset: 0xA158, size: 0x8, addend: 0x0, symName: __ZNSt3__115basic_stringbufIcNS_11char_traitsIcEENS_9allocatorIcEEE7seekposENS_4fposI11__mbstate_tEEj, symObjAddr: 0x9F0, symBinAddr: 0x46F4, symSize: 0x18 }
  - { offset: 0xA1F7, size: 0x8, addend: 0x0, symName: __ZNSt3__115basic_stringbufIcNS_11char_traitsIcEENS_9allocatorIcEEE9underflowEv, symObjAddr: 0xA08, symBinAddr: 0x470C, symSize: 0x50 }
  - { offset: 0xA29B, size: 0x8, addend: 0x0, symName: __ZNSt3__115basic_stringbufIcNS_11char_traitsIcEENS_9allocatorIcEEE9pbackfailEi, symObjAddr: 0xA58, symBinAddr: 0x475C, symSize: 0x6C }
  - { offset: 0xA46A, size: 0x8, addend: 0x0, symName: __ZNSt3__115basic_stringbufIcNS_11char_traitsIcEENS_9allocatorIcEEE8overflowEi, symObjAddr: 0xAC4, symBinAddr: 0x47C8, symSize: 0x1BC }
  - { offset: 0xA94C, size: 0x8, addend: 0x0, symName: __ZNKSt3__112basic_stringIcNS_11char_traitsIcEENS_9allocatorIcEEE20__throw_length_errorB8ne180100Ev, symObjAddr: 0xD0C, symBinAddr: 0x4A10, symSize: 0x14 }
  - { offset: 0xA976, size: 0x8, addend: 0x0, symName: __ZNSt3__120__throw_length_errorB8ne180100EPKc, symObjAddr: 0xD20, symBinAddr: 0x4A24, symSize: 0x50 }
  - { offset: 0xA981, size: 0x8, addend: 0x0, symName: __ZNSt12length_errorC1B8ne180100EPKc, symObjAddr: 0xD70, symBinAddr: 0x4A74, symSize: 0x24 }
  - { offset: 0x16659, size: 0x8, addend: 0x0, symName: __ZNSt3__16vectorIhNS_9allocatorIhEEE18__insert_with_sizeB8ne180100INS_11__wrap_iterIPKcEES8_EENS5_IPhEENS5_IPKhEET_T0_l, symObjAddr: 0x1550, symBinAddr: 0x53DC, symSize: 0x418 }
  - { offset: 0x1711E, size: 0x8, addend: 0x0, symName: __ZNSt3__16vectorIhNS_9allocatorIhEEE18__insert_with_sizeB8ne180100INS_11__wrap_iterIPKhEES8_EENS5_IPhEES8_T_T0_l, symObjAddr: 0x1968, symBinAddr: 0x57F4, symSize: 0x398 }
  - { offset: 0x171D1, size: 0x8, addend: 0x0, symName: __ZNSt3__16vectorIhNS_9allocatorIhEEE18__insert_with_sizeB8ne180100INS_11__wrap_iterIPKhEES8_EENS5_IPhEES8_T_T0_l, symObjAddr: 0x1968, symBinAddr: 0x57F4, symSize: 0x398 }
  - { offset: 0x17D95, size: 0x8, addend: 0x0, symName: __ZNSt3__16vectorIhNS_9allocatorIhEEE18__insert_with_sizeB8ne180100IPKhS6_EENS_11__wrap_iterIPhEENS7_IS6_EET_T0_l, symObjAddr: 0x1D00, symBinAddr: 0x5B8C, symSize: 0x2B4 }
  - { offset: 0x17DEB, size: 0x8, addend: 0x0, symName: __ZN6common6base647EncoderC1ERKNSt3__16vectorIhNS2_9allocatorIhEEEENS_13Base64Rfc46486OptionE, symObjAddr: 0x38C, symBinAddr: 0x4FF8, symSize: 0xA4 }
  - { offset: 0x181F5, size: 0x8, addend: 0x0, symName: __ZNSt3__16vectorIhNS_9allocatorIhEEE18__insert_with_sizeB8ne180100IPKhS6_EENS_11__wrap_iterIPhEENS7_IS6_EET_T0_l, symObjAddr: 0x1D00, symBinAddr: 0x5B8C, symSize: 0x2B4 }
  - { offset: 0x18D73, size: 0x8, addend: 0x0, symName: __ZNSt3__16vectorIcNS_9allocatorIcEEE8__appendEmRKc, symObjAddr: 0x1FB4, symBinAddr: 0x5E40, symSize: 0x2B4 }
  - { offset: 0x18DEA, size: 0x8, addend: 0x0, symName: __ZN6common6base647EncoderC1EPKhmNS_13Base64Rfc46486OptionE, symObjAddr: 0x520, symBinAddr: 0x509C, symSize: 0xBC }
  - { offset: 0x1941F, size: 0x8, addend: 0x0, symName: __ZN6common6base647Encoder8toStringEv, symObjAddr: 0x6CC, symBinAddr: 0x5158, symSize: 0xF8 }
  - { offset: 0x198CC, size: 0x8, addend: 0x0, symName: __ZN6common6base647Encoder21internalEncodeProcessEv, symObjAddr: 0x7C4, symBinAddr: 0x5250, symSize: 0x178 }
  - { offset: 0x198DE, size: 0x8, addend: 0x0, symName: __ZN6common6base647Encoder21internalEncodeProcessEv, symObjAddr: 0x7C4, symBinAddr: 0x5250, symSize: 0x178 }
  - { offset: 0x19B71, size: 0x8, addend: 0x0, symName: __ZNSt3__16vectorIcNS_9allocatorIcEEE8__appendEmRKc, symObjAddr: 0x1FB4, symBinAddr: 0x5E40, symSize: 0x2B4 }
  - { offset: 0x1A183, size: 0x8, addend: 0x0, symName: __ZNKSt3__16vectorIhNS_9allocatorIhEEE20__throw_length_errorB8ne180100Ev, symObjAddr: 0xEDC, symBinAddr: 0x53C8, symSize: 0x14 }
  - { offset: 0x1DB21, size: 0x8, addend: 0x0, symName: __ZN6common13Base64Rfc4648C2ENS0_6OptionE, symObjAddr: 0xB0, symBinAddr: 0x60F4, symSize: 0x5C }
  - { offset: 0x1DB84, size: 0x8, addend: 0x0, symName: __ZNK6common13Base64Rfc464818isStandartAlphabetEv, symObjAddr: 0x30C, symBinAddr: 0x6150, symSize: 0x10 }
  - { offset: 0x28480, size: 0x8, addend: 0x0, symName: __ZN6common5uuids9to_stringERKNS0_4GuidE, symObjAddr: 0x7C0, symBinAddr: 0x62B8, symSize: 0x100 }
  - { offset: 0x2A0BA, size: 0x8, addend: 0x0, symName: __ZN6common5uuids4GuidC1ERKNSt3__112basic_stringIcNS2_11char_traitsIcEENS2_9allocatorIcEEEE, symObjAddr: 0x25C, symBinAddr: 0x6160, symSize: 0xFC }
  - { offset: 0x2A6BA, size: 0x8, addend: 0x0, symName: __ZN6common5uuids4GuidC1ERK5_GUID, symObjAddr: 0x40C, symBinAddr: 0x625C, symSize: 0x5C }
  - { offset: 0x2A6F5, size: 0x8, addend: 0x0, symName: __ZN6common5uuids4GuidC1ERK5_GUID, symObjAddr: 0x40C, symBinAddr: 0x625C, symSize: 0x5C }
  - { offset: 0x2AF55, size: 0x8, addend: 0x0, symName: __ZN6common5uuids13GuidGenerator7newGuidEv, symObjAddr: 0xA44, symBinAddr: 0x63B8, symSize: 0x6C }
  - { offset: 0x2EBB7, size: 0x8, addend: 0x0, symName: __ZN6common3zip5entryrsERNS0_12input_readerERNS1_12extraField_tE, symObjAddr: 0x988, symBinAddr: 0x6448, symSize: 0x14C }
  - { offset: 0x3B908, size: 0x8, addend: 0x0, symName: __ZSt28__throw_bad_array_new_lengthB8ne180100v, symObjAddr: 0x3A54, symBinAddr: 0x8588, symSize: 0x28 }
  - { offset: 0x3C56F, size: 0x8, addend: 0x0, symName: __ZNSt11range_errorC1B8ne180100EPKc, symObjAddr: 0x208, symBinAddr: 0x6424, symSize: 0x24 }
  - { offset: 0x3CE03, size: 0x8, addend: 0x0, symName: __ZN6common3zip5entry10local_file6header7extractERNS0_12input_readerE, symObjAddr: 0xAD4, symBinAddr: 0x6594, symSize: 0x5F0 }
  - { offset: 0x3F484, size: 0x8, addend: 0x0, symName: __ZNSt3__16vectorINS_12basic_stringIcNS_11char_traitsIcEENS_9allocatorIcEEEENS4_IS6_EEE24__emplace_back_slow_pathIJRKNS_17basic_string_viewIcS3_EEEEEPS6_DpOT_, symObjAddr: 0x3A90, symBinAddr: 0x85B0, symSize: 0x228 }
  - { offset: 0x3F48F, size: 0x8, addend: 0x0, symName: __ZN6common3zip5entry17central_directory11file_header7extractERNS0_12input_readerE, symObjAddr: 0x130C, symBinAddr: 0x6B84, symSize: 0x818 }
  - { offset: 0x42DCE, size: 0x8, addend: 0x0, symName: __ZN6common3zip5entry17central_directory7extractERNS0_12input_readerE, symObjAddr: 0x1B24, symBinAddr: 0x739C, symSize: 0x3E0 }
  - { offset: 0x4463C, size: 0x8, addend: 0x0, symName: __ZN6common3zip11mapped_file12parseProcessEv, symObjAddr: 0x1F54, symBinAddr: 0x777C, symSize: 0x634 }
  - { offset: 0x465D8, size: 0x8, addend: 0x0, symName: __ZNSt3__16vectorIN6common3zip5entry17central_directory11file_headerENS_9allocatorIS5_EEE24__emplace_back_slow_pathIJS5_EEEPS5_DpOT_, symObjAddr: 0x3D44, symBinAddr: 0x883C, symSize: 0x1C8 }
  - { offset: 0x46D22, size: 0x8, addend: 0x0, symName: __ZNSt3__16vectorIN6common3zip11mapped_file10entry_fileENS_9allocatorIS4_EEE5clearB8ne180100Ev, symObjAddr: 0x2B8C, symBinAddr: 0x7E5C, symSize: 0x50 }
  - { offset: 0x46F6C, size: 0x8, addend: 0x0, symName: __ZNSt3__16vectorIN6common3zip11mapped_file10entry_fileENS_9allocatorIS4_EEE7reserveEm, symObjAddr: 0x2BDC, symBinAddr: 0x7EAC, symSize: 0x120 }
  - { offset: 0x47546, size: 0x8, addend: 0x0, symName: __ZNSt3__16vectorIN6common3zip11mapped_file10entry_fileENS_9allocatorIS4_EEE24__emplace_back_slow_pathIJRKNS2_5entry17central_directory11file_headerEEEEPS4_DpOT_, symObjAddr: 0x3F34, symBinAddr: 0x8A04, symSize: 0x1C0 }
  - { offset: 0x47CAB, size: 0x8, addend: 0x0, symName: __ZNSt3__16vectorIhNS_9allocatorIhEEE18__assign_with_sizeB8ne180100IPhS5_EEvT_T0_l, symObjAddr: 0x40F4, symBinAddr: 0x8BC4, symSize: 0x148 }
  - { offset: 0x47CC1, size: 0x8, addend: 0x0, symName: __ZNSt3__16vectorIN6common3zip5entry17central_directory11file_headerENS_9allocatorIS5_EEED1B8ne180100Ev, symObjAddr: 0x2D08, symBinAddr: 0x7FCC, symSize: 0x70 }
  - { offset: 0x4849C, size: 0x8, addend: 0x0, symName: __ZNSt3__16vectorINS_12basic_stringIcNS_11char_traitsIcEENS_9allocatorIcEEEENS4_IS6_EEE24__emplace_back_slow_pathIJRKNS_17basic_string_viewIcS3_EEEEEPS6_DpOT_, symObjAddr: 0x3A90, symBinAddr: 0x85B0, symSize: 0x228 }
  - { offset: 0x48E45, size: 0x8, addend: 0x0, symName: __ZNSt3__114__split_bufferINS_12basic_stringIcNS_11char_traitsIcEENS_9allocatorIcEEEERNS4_IS6_EEED1Ev, symObjAddr: 0x3CCC, symBinAddr: 0x87D8, symSize: 0x64 }
  - { offset: 0x48E50, size: 0x8, addend: 0x0, symName: __ZNSt3__16vectorINS_12basic_stringIcNS_11char_traitsIcEENS_9allocatorIcEEEENS4_IS6_EEED1B8ne180100Ev, symObjAddr: 0x27CC, symBinAddr: 0x7DB0, symSize: 0x70 }
  - { offset: 0x49335, size: 0x8, addend: 0x0, symName: __ZNK6common3zip11mapped_file10entry_file10decompressEv, symObjAddr: 0x2EF0, symBinAddr: 0x803C, symSize: 0x164 }
  - { offset: 0x496ED, size: 0x8, addend: 0x0, symName: __ZNK6common3zip11mapped_file10entry_file16decompressedDataEv, symObjAddr: 0x28DC, symBinAddr: 0x7E20, symSize: 0x2C }
  - { offset: 0x49830, size: 0x8, addend: 0x0, symName: __ZNK6common3zip11mapped_file5beginEv, symObjAddr: 0x29E8, symBinAddr: 0x7E4C, symSize: 0x8 }
  - { offset: 0x49854, size: 0x8, addend: 0x0, symName: __ZNK6common3zip11mapped_file5beginEv, symObjAddr: 0x29E8, symBinAddr: 0x7E4C, symSize: 0x8 }
  - { offset: 0x49889, size: 0x8, addend: 0x0, symName: __ZNK6common3zip11mapped_file3endEv, symObjAddr: 0x29F8, symBinAddr: 0x7E54, symSize: 0x8 }
  - { offset: 0x498B5, size: 0x8, addend: 0x0, symName: __ZNK6common3zip11mapped_file3endEv, symObjAddr: 0x29F8, symBinAddr: 0x7E54, symSize: 0x8 }
  - { offset: 0x49BD1, size: 0x8, addend: 0x0, symName: __ZNSt3__16vectorIN6common3zip11mapped_file10entry_fileENS_9allocatorIS4_EEE24__emplace_back_slow_pathIJRKNS2_5entry17central_directory11file_headerEEEEPS4_DpOT_, symObjAddr: 0x3F34, symBinAddr: 0x8A04, symSize: 0x1C0 }
  - { offset: 0x49DF7, size: 0x8, addend: 0x0, symName: __ZNSt3__16vectorIhNS_9allocatorIhEEE6assignEmRKh, symObjAddr: 0x3068, symBinAddr: 0x81A0, symSize: 0x248 }
  - { offset: 0x4A569, size: 0x8, addend: 0x0, symName: __ZN6common3zip4fileaSENS_4type4spanIKhLm18446744073709551615EEE, symObjAddr: 0x3438, symBinAddr: 0x83E8, symSize: 0x114 }
  - { offset: 0x4B02E, size: 0x8, addend: 0x0, symName: __ZN6common3zip4fileC1EONSt3__16vectorIhNS2_9allocatorIhEEEE, symObjAddr: 0x364C, symBinAddr: 0x84FC, symSize: 0x8C }
  - { offset: 0x4B315, size: 0x8, addend: 0x0, symName: __ZN6common3zip4fileC1EONSt3__16vectorIhNS2_9allocatorIhEEEE.cold.1, symObjAddr: 0x4294, symBinAddr: 0xF4D0B8, symSize: 0x68 }
  - { offset: 0x4B632, size: 0x8, addend: 0x0, symName: __ZNSt3__16vectorIhNS_9allocatorIhEEE18__assign_with_sizeB8ne180100IPhS5_EEvT_T0_l, symObjAddr: 0x40F4, symBinAddr: 0x8BC4, symSize: 0x148 }
  - { offset: 0x4C44F, size: 0x8, addend: 0x0, symName: __ZNSt3__16vectorIN6common3zip5entry17central_directory11file_headerENS_9allocatorIS5_EEE24__emplace_back_slow_pathIJS5_EEEPS5_DpOT_, symObjAddr: 0x3D44, symBinAddr: 0x883C, symSize: 0x1C8 }
  - { offset: 0x4C45A, size: 0x8, addend: 0x0, symName: __ZNSt3__114__split_bufferINS_12basic_stringIcNS_11char_traitsIcEENS_9allocatorIcEEEERNS4_IS6_EEED1Ev, symObjAddr: 0x3CCC, symBinAddr: 0x87D8, symSize: 0x64 }
  - { offset: 0x4C8F1, size: 0x8, addend: 0x0, symName: _OUTLINED_FUNCTION_0, symObjAddr: 0x42FC, symBinAddr: 0x8D0C, symSize: 0xC }
  - { offset: 0x4E813, size: 0x8, addend: 0x0, symName: __ZN7facesdk14LSessionParams14posConstNormalE, symObjAddr: 0x19578, symBinAddr: 0x12190C0, symSize: 0x0 }
  - { offset: 0x4ECFC, size: 0x8, addend: 0x0, symName: __ZN7facesdk14LSessionParams12posConstNearE, symObjAddr: 0x19598, symBinAddr: 0x12190E0, symSize: 0x0 }
  - { offset: 0x7D61F, size: 0x8, addend: 0x0, symName: __ZNSt3__119__allocator_destroyB8ne180100INS_9allocatorIN7facesdk6LStageEEENS_16reverse_iteratorIPS3_EES7_EEvRT_T0_T1_, symObjAddr: 0xE99C, symBinAddr: 0x1730C, symSize: 0x144 }
  - { offset: 0x7ED23, size: 0x8, addend: 0x0, symName: __ZNSt3__120__throw_out_of_rangeB8ne180100EPKc, symObjAddr: 0xEE5C, symBinAddr: 0x177CC, symSize: 0x50 }
  - { offset: 0x7F16E, size: 0x8, addend: 0x0, symName: __ZNSt3__119__allocator_destroyB8ne180100INS_9allocatorIN7facesdk6LStageEEENS_16reverse_iteratorINS5_IPS3_EEEES8_EEvRT_T0_T1_, symObjAddr: 0xF4DC, symBinAddr: 0x17E4C, symSize: 0x158 }
  - { offset: 0x7FC91, size: 0x8, addend: 0x0, symName: __ZNSt3__127__tree_balance_after_insertB8ne180100IPNS_16__tree_node_baseIPvEEEEvT_S5_, symObjAddr: 0xFCC8, symBinAddr: 0x18638, symSize: 0x1B4 }
  - { offset: 0x895E6, size: 0x8, addend: 0x0, symName: __ZN8nlohmann16json_abi_v3_12_06detail6concatINSt3__112basic_stringIcNS3_11char_traitsIcEENS3_9allocatorIcEEEEJRA29_KcPSA_EEET_DpOT0_, symObjAddr: 0xC328, symBinAddr: 0x14DC4, symSize: 0x84 }
  - { offset: 0x89870, size: 0x8, addend: 0x0, symName: __ZN8nlohmann16json_abi_v3_12_06detail9from_jsonINS0_10basic_jsonINSt3__13mapENS4_6vectorENS4_12basic_stringIcNS4_11char_traitsIcEENS4_9allocatorIcEEEEbxydSA_NS0_14adl_serializerENS6_IhNSA_IhEEEEvEEmLi0EEEvRKT_RT0_, symObjAddr: 0xC020, symBinAddr: 0x14ABC, symSize: 0x13C }
  - { offset: 0x89A5A, size: 0x8, addend: 0x0, symName: __ZN8nlohmann16json_abi_v3_12_06detail6concatINSt3__112basic_stringIcNS3_11char_traitsIcEENS3_9allocatorIcEEEEJRA22_KcPSA_EEET_DpOT0_, symObjAddr: 0x123EC, symBinAddr: 0x1AA2C, symSize: 0x84 }
  - { offset: 0x89D06, size: 0x8, addend: 0x0, symName: __ZN8nlohmann16json_abi_v3_12_06detail6concatINSt3__112basic_stringIcNS3_11char_traitsIcEENS3_9allocatorIcEEEEJRA6_KcS9_RA12_SA_EEET_DpOT0_, symObjAddr: 0x12470, symBinAddr: 0x1AAB0, symSize: 0xC8 }
  - { offset: 0x8A1AC, size: 0x8, addend: 0x0, symName: __ZN8nlohmann16json_abi_v3_12_06detail6concatINSt3__112basic_stringIcNS3_11char_traitsIcEENS3_9allocatorIcEEEEJRA32_KcPSA_EEET_DpOT0_, symObjAddr: 0x12538, symBinAddr: 0x1AB78, symSize: 0x84 }
  - { offset: 0x8A458, size: 0x8, addend: 0x0, symName: __ZN8nlohmann16json_abi_v3_12_06detail9from_jsonINS0_10basic_jsonINSt3__13mapENS4_6vectorENS4_12basic_stringIcNS4_11char_traitsIcEENS4_9allocatorIcEEEEbxydSA_NS0_14adl_serializerENS6_IhNSA_IhEEEEvEEEEvRKT_RNSH_8string_tE, symObjAddr: 0x1351C, symBinAddr: 0x1BB5C, symSize: 0xE0 }
  - { offset: 0x8A66D, size: 0x8, addend: 0x0, symName: __ZN8nlohmann16json_abi_v3_12_06detail9from_jsonINS0_10basic_jsonINSt3__13mapENS4_6vectorENS4_12basic_stringIcNS4_11char_traitsIcEENS4_9allocatorIcEEEEbxydSA_NS0_14adl_serializerENS6_IhNSA_IhEEEEvEEiLi0EEEvRKT_RT0_, symObjAddr: 0x171F0, symBinAddr: 0x1F808, symSize: 0x13C }
  - { offset: 0x8A857, size: 0x8, addend: 0x0, symName: __ZN8nlohmann16json_abi_v3_12_06detail9from_jsonINS0_10basic_jsonINSt3__13mapENS4_6vectorENS4_12basic_stringIcNS4_11char_traitsIcEENS4_9allocatorIcEEEEbxydSA_NS0_14adl_serializerENS6_IhNSA_IhEEEEvEENS6_IjNSA_IjEEEELi0EEEDTcmcmcl20from_json_array_implfp_fp0_tlNS1_12priority_tagILj3EEEEEcldtfp_3getINT0_10value_typeEEEcvv_EERKT_RSL_, symObjAddr: 0xC6CC, symBinAddr: 0x15168, symSize: 0xD8 }
  - { offset: 0x8AA96, size: 0x8, addend: 0x0, symName: __ZN8nlohmann16json_abi_v3_12_06detail20get_arithmetic_valueINS0_10basic_jsonINSt3__13mapENS4_6vectorENS4_12basic_stringIcNS4_11char_traitsIcEENS4_9allocatorIcEEEEbxydSA_NS0_14adl_serializerENS6_IhNSA_IhEEEEvEEiLi0EEEvRKT_RT0_, symObjAddr: 0x13408, symBinAddr: 0x1BA48, symSize: 0x114 }
  - { offset: 0x8AC7B, size: 0x8, addend: 0x0, symName: __ZN8nlohmann16json_abi_v3_12_06detail6concatINSt3__112basic_stringIcNS3_11char_traitsIcEENS3_9allocatorIcEEEEJRA25_KcPSA_EEET_DpOT0_, symObjAddr: 0x13384, symBinAddr: 0x1B9C4, symSize: 0x84 }
  - { offset: 0x8B128, size: 0x8, addend: 0x0, symName: __ZN8nlohmann16json_abi_v3_12_06detail9from_jsonINS0_10basic_jsonINSt3__13mapENS4_6vectorENS4_12basic_stringIcNS4_11char_traitsIcEENS4_9allocatorIcEEEEbxydSA_NS0_14adl_serializerENS6_IhNSA_IhEEEEvEEfLi0EEEvRKT_RT0_, symObjAddr: 0x1732C, symBinAddr: 0x1F944, symSize: 0x170 }
  - { offset: 0x8B312, size: 0x8, addend: 0x0, symName: __ZN8nlohmann16json_abi_v3_12_06detail6concatINSt3__112basic_stringIcNS3_11char_traitsIcEENS3_9allocatorIcEEEEJRA17_KcRKS9_cS9_RA3_SA_EEET_DpOT0_, symObjAddr: 0xC504, symBinAddr: 0x14FA0, symSize: 0x128 }
  - { offset: 0x8B8A8, size: 0x8, addend: 0x0, symName: __ZN8nlohmann16json_abi_v3_12_06detail6concatINSt3__112basic_stringIcNS3_11char_traitsIcEENS3_9allocatorIcEEEEJS9_S9_RKS9_EEET_DpOT0_, symObjAddr: 0xC404, symBinAddr: 0x14EA0, symSize: 0x100 }
  - { offset: 0x8C27D, size: 0x8, addend: 0x0, symName: __ZN8nlohmann16json_abi_v3_12_06detail20from_json_array_implINS0_10basic_jsonINSt3__13mapENS4_6vectorENS4_12basic_stringIcNS4_11char_traitsIcEENS4_9allocatorIcEEEEbxydSA_NS0_14adl_serializerENS6_IhNSA_IhEEEEvEENS6_IjNSA_IjEEEELi0EEEDTcmcmcldtfp0_7reserveclsr3stdE7declvalINT0_9size_typeEEEEcldtfp_3getINSJ_10value_typeEEEcvv_EERKT_RSJ_NS1_12priority_tagILj1EEE, symObjAddr: 0xC828, symBinAddr: 0x152C4, symSize: 0x258 }
  - { offset: 0x8CD18, size: 0x8, addend: 0x0, symName: __ZN8nlohmann16json_abi_v3_12_06detail6concatINSt3__112basic_stringIcNS3_11char_traitsIcEENS3_9allocatorIcEEEEJRA28_KcPSA_EEET_DpOT0_, symObjAddr: 0xC7A4, symBinAddr: 0x15240, symSize: 0x84 }
  - { offset: 0x8D016, size: 0x8, addend: 0x0, symName: __ZN8nlohmann16json_abi_v3_12_06detail9from_jsonINS0_10basic_jsonINSt3__13mapENS4_6vectorENS4_12basic_stringIcNS4_11char_traitsIcEENS4_9allocatorIcEEEEbxydSA_NS0_14adl_serializerENS6_IhNSA_IhEEEEvEEjLi0EEEvRKT_RT0_, symObjAddr: 0xCF3C, symBinAddr: 0x159D8, symSize: 0x13C }
  - { offset: 0x8D26F, size: 0x8, addend: 0x0, symName: __ZN8nlohmann16json_abi_v3_12_06detail6concatINSt3__112basic_stringIcNS3_11char_traitsIcEENS3_9allocatorIcEEEEJRA51_KcPSA_EEET_DpOT0_, symObjAddr: 0xFA70, symBinAddr: 0x183E0, symSize: 0x84 }
  - { offset: 0x8D4E5, size: 0x8, addend: 0x0, symName: __ZN8nlohmann16json_abi_v3_12_06detail6concatINSt3__112basic_stringIcNS3_11char_traitsIcEENS3_9allocatorIcEEEEJRA61_KcPSA_EEET_DpOT0_, symObjAddr: 0x10DE4, symBinAddr: 0x196D8, symSize: 0x84 }
  - { offset: 0x8D7E3, size: 0x8, addend: 0x0, symName: __ZN8nlohmann16json_abi_v3_12_06detail6concatINSt3__112basic_stringIcNS3_11char_traitsIcEENS3_9allocatorIcEEEEJRA52_KcS9_RA2_SA_EEET_DpOT0_, symObjAddr: 0x11784, symBinAddr: 0x1A078, symSize: 0xC8 }
  - { offset: 0x8DF3F, size: 0x8, addend: 0x0, symName: __ZN8nlohmann16json_abi_v3_12_06detail6concatINSt3__112basic_stringIcNS3_11char_traitsIcEENS3_9allocatorIcEEEEJRA52_KcPSA_EEET_DpOT0_, symObjAddr: 0x12E68, symBinAddr: 0x1B4A8, symSize: 0x84 }
  - { offset: 0x8E32A, size: 0x8, addend: 0x0, symName: __ZN8nlohmann16json_abi_v3_12_06detail6concatINSt3__112basic_stringIcNS3_11char_traitsIcEENS3_9allocatorIcEEEEJRA26_KcS9_cEEET_DpOT0_, symObjAddr: 0x16B90, symBinAddr: 0x1F1BC, symSize: 0xB4 }
  - { offset: 0x8E6DC, size: 0x8, addend: 0x0, symName: __ZN8nlohmann16json_abi_v3_12_06detail6concatINSt3__112basic_stringIcNS3_11char_traitsIcEENS3_9allocatorIcEEEEJS9_RA12_KcS9_RA3_SA_S9_RKS9_EEET_DpOT0_, symObjAddr: 0x16D58, symBinAddr: 0x1F370, symSize: 0x190 }
  - { offset: 0x8F099, size: 0x8, addend: 0x0, symName: __ZN8nlohmann16json_abi_v3_12_06detail6concatINSt3__112basic_stringIcNS3_11char_traitsIcEENS3_9allocatorIcEEEEJPKcRA15_SA_S9_cEEET_DpOT0_, symObjAddr: 0x17110, symBinAddr: 0x1F728, symSize: 0xE0 }
  - { offset: 0x8F921, size: 0x8, addend: 0x0, symName: __ZN8nlohmann16json_abi_v3_12_06detail6concatINSt3__112basic_stringIcNS3_11char_traitsIcEENS3_9allocatorIcEEEEJRA10_KcS9_SC_S9_EEET_DpOT0_, symObjAddr: 0x16FD0, symBinAddr: 0x1F5E8, symSize: 0x10C }
  - { offset: 0x94455, size: 0x8, addend: 0x0, symName: __ZN7facesdk15LivenessSessionC2ERKNS_14LSessionParamsERKN8nlohmann16json_abi_v3_12_010basic_jsonINSt3__13mapENS7_6vectorENS7_12basic_stringIcNS7_11char_traitsIcEENS7_9allocatorIcEEEEbxydSD_NS5_14adl_serializerENS9_IhNSD_IhEEEEvEE, symObjAddr: 0x0, symBinAddr: 0x8D18, symSize: 0x544 }
  - { offset: 0x9649A, size: 0x8, addend: 0x0, symName: __ZN7facesdk14LSessionParamsC2ERKS0_, symObjAddr: 0xB9D0, symBinAddr: 0x14540, symSize: 0x310 }
  - { offset: 0x97178, size: 0x8, addend: 0x0, symName: __ZNSt3__16vectorIN7facesdk6LStageENS_9allocatorIS2_EEEC2B8ne180100ESt16initializer_listIS2_E, symObjAddr: 0xDDE4, symBinAddr: 0x167B8, symSize: 0x118 }
  - { offset: 0x9756B, size: 0x8, addend: 0x0, symName: __ZN8nlohmann16json_abi_v3_12_010basic_jsonINSt3__13mapENS2_6vectorENS2_12basic_stringIcNS2_11char_traitsIcEENS2_9allocatorIcEEEEbxydS8_NS0_14adl_serializerENS4_IhNS8_IhEEEEvE10json_value7destroyENS0_6detail7value_tE, symObjAddr: 0xD4B0, symBinAddr: 0x15EAC, symSize: 0x450 }
  - { offset: 0x987D9, size: 0x8, addend: 0x0, symName: __ZNSt3__16vectorIfNS_9allocatorIfEEE8__appendEm, symObjAddr: 0xDC34, symBinAddr: 0x1661C, symSize: 0x19C }
  - { offset: 0x98C3C, size: 0x8, addend: 0x0, symName: __ZN7facesdk15LivenessSession11initPackageERKN8nlohmann16json_abi_v3_12_010basic_jsonINSt3__13mapENS4_6vectorENS4_12basic_stringIcNS4_11char_traitsIcEENS4_9allocatorIcEEEEbxydSA_NS2_14adl_serializerENS6_IhNSA_IhEEEEvEE, symObjAddr: 0x664, symBinAddr: 0x937C, symSize: 0x17C }
  - { offset: 0x9947D, size: 0x8, addend: 0x0, symName: __ZN7facesdk6LStageD1Ev, symObjAddr: 0x5F4, symBinAddr: 0x930C, symSize: 0x70 }
  - { offset: 0x99772, size: 0x8, addend: 0x0, symName: __ZN8nlohmann16json_abi_v3_12_010basic_jsonINSt3__13mapENS2_6vectorENS2_12basic_stringIcNS2_11char_traitsIcEENS2_9allocatorIcEEEEbxydS8_NS0_14adl_serializerENS4_IhNS8_IhEEEEvED1Ev, symObjAddr: 0x7E0, symBinAddr: 0x94F8, symSize: 0x2C }
  - { offset: 0x997E7, size: 0x8, addend: 0x0, symName: __ZNSt3__16vectorIN7facesdk6LStageENS_9allocatorIS2_EEED1B8ne180100Ev, symObjAddr: 0x80C, symBinAddr: 0x9524, symSize: 0x38 }
  - { offset: 0x9991E, size: 0x8, addend: 0x0, symName: __ZNSt3__15dequeIN7facesdk11eFL_MessageENS_9allocatorIS2_EEED2B8ne180100Ev, symObjAddr: 0xBF5C, symBinAddr: 0x149F8, symSize: 0xC4 }
  - { offset: 0x99D3B, size: 0x8, addend: 0x0, symName: __ZN7facesdk14LSessionParamsD1Ev, symObjAddr: 0x844, symBinAddr: 0x955C, symSize: 0xA4 }
  - { offset: 0x9A53C, size: 0x8, addend: 0x0, symName: __ZNSt3__112basic_stringIcNS_11char_traitsIcEENS_9allocatorIcEEEC1B8ne180100ILi0EEEPKc, symObjAddr: 0x544, symBinAddr: 0x925C, symSize: 0xB0 }
  - { offset: 0x9A8E9, size: 0x8, addend: 0x0, symName: __ZN7facesdk6LStageD1Ev, symObjAddr: 0x5F4, symBinAddr: 0x930C, symSize: 0x70 }
  - { offset: 0x9A930, size: 0x8, addend: 0x0, symName: __ZN7facesdk12LFrameResultD2Ev, symObjAddr: 0xBE0C, symBinAddr: 0x148A8, symSize: 0xC0 }
  - { offset: 0x9B0A8, size: 0x8, addend: 0x0, symName: __ZN8nlohmann16json_abi_v3_12_010basic_jsonINSt3__13mapENS2_6vectorENS2_12basic_stringIcNS2_11char_traitsIcEENS2_9allocatorIcEEEEbxydS8_NS0_14adl_serializerENS4_IhNS8_IhEEEEvEixIKcEERSE_PT_, symObjAddr: 0x3E4C, symBinAddr: 0xC9BC, symSize: 0xF4 }
  - { offset: 0x9B713, size: 0x8, addend: 0x0, symName: __ZNK8nlohmann16json_abi_v3_12_010basic_jsonINSt3__13mapENS2_6vectorENS2_12basic_stringIcNS2_11char_traitsIcEENS2_9allocatorIcEEEEbxydS8_NS0_14adl_serializerENS4_IhNS8_IhEEEEvE2atIRA7_KcLi0EEERKSE_OT_, symObjAddr: 0x5058, symBinAddr: 0xDBC8, symSize: 0x1EC }
  - { offset: 0x9BD68, size: 0x8, addend: 0x0, symName: __ZN8nlohmann16json_abi_v3_12_010basic_jsonINSt3__13mapENS2_6vectorENS2_12basic_stringIcNS2_11char_traitsIcEENS2_9allocatorIcEEEEbxydS8_NS0_14adl_serializerENS4_IhNS8_IhEEEEvEC2ERKSE_, symObjAddr: 0xFE7C, symBinAddr: 0x187EC, symSize: 0x288 }
  - { offset: 0x9CBDA, size: 0x8, addend: 0x0, symName: __ZNSt3__16vectorIN7facesdk6LStageENS_9allocatorIS2_EEE22__base_destruct_at_endB8ne180100EPS2_, symObjAddr: 0xEAE0, symBinAddr: 0x17450, symSize: 0x148 }
  - { offset: 0x9D808, size: 0x8, addend: 0x0, symName: __ZN7facesdk15LivenessSessionC1ERKNS_14LSessionParamsERKN8nlohmann16json_abi_v3_12_010basic_jsonINSt3__13mapENS7_6vectorENS7_12basic_stringIcNS7_11char_traitsIcEENS7_9allocatorIcEEEEbxydSD_NS5_14adl_serializerENS9_IhNSD_IhEEEEvEE, symObjAddr: 0x8E8, symBinAddr: 0x9600, symSize: 0x4 }
  - { offset: 0x9D852, size: 0x8, addend: 0x0, symName: __ZN7facesdk15LivenessSessionC1ERKNS_14LSessionParamsERKN8nlohmann16json_abi_v3_12_010basic_jsonINSt3__13mapENS7_6vectorENS7_12basic_stringIcNS7_11char_traitsIcEENS7_9allocatorIcEEEEbxydSD_NS5_14adl_serializerENS9_IhNSD_IhEEEEvEE, symObjAddr: 0x8E8, symBinAddr: 0x9600, symSize: 0x4 }
  - { offset: 0x9D8C8, size: 0x8, addend: 0x0, symName: __ZNK7facesdk15LivenessSession9frameSizeEv, symObjAddr: 0x8EC, symBinAddr: 0x9604, symSize: 0xC }
  - { offset: 0x9D8F1, size: 0x8, addend: 0x0, symName: __ZNK7facesdk15LivenessSession9frameSizeEv, symObjAddr: 0x8EC, symBinAddr: 0x9604, symSize: 0xC }
  - { offset: 0x9D913, size: 0x8, addend: 0x0, symName: __ZNK7facesdk15LivenessSession9frameSizeEv, symObjAddr: 0x8EC, symBinAddr: 0x9604, symSize: 0xC }
  - { offset: 0x9D936, size: 0x8, addend: 0x0, symName: __ZNK7facesdk15LivenessSession11numChannelsEv, symObjAddr: 0x8F8, symBinAddr: 0x9610, symSize: 0x8 }
  - { offset: 0x9D95F, size: 0x8, addend: 0x0, symName: __ZNK7facesdk15LivenessSession13rotationAngleEv, symObjAddr: 0x900, symBinAddr: 0x9618, symSize: 0x8 }
  - { offset: 0x9D9ED, size: 0x8, addend: 0x0, symName: __ZN7facesdk15LivenessSession6statusEv, symObjAddr: 0x908, symBinAddr: 0x9620, symSize: 0x94 }
  - { offset: 0x9DA68, size: 0x8, addend: 0x0, symName: __ZN7facesdk15LivenessSession7messageEv, symObjAddr: 0xA18, symBinAddr: 0x96B4, symSize: 0xE4 }
  - { offset: 0x9DADC, size: 0x8, addend: 0x0, symName: __ZNK7facesdk15LivenessSession15processingStageEv, symObjAddr: 0xAFC, symBinAddr: 0x9798, symSize: 0xC }
  - { offset: 0x9DB00, size: 0x8, addend: 0x0, symName: __ZNK7facesdk15LivenessSession15processingStageEv, symObjAddr: 0xAFC, symBinAddr: 0x9798, symSize: 0xC }
  - { offset: 0x9DB1D, size: 0x8, addend: 0x0, symName: __ZNK7facesdk15LivenessSession14processingTimeEv, symObjAddr: 0xB08, symBinAddr: 0x97A4, symSize: 0x8 }
  - { offset: 0x9DB3F, size: 0x8, addend: 0x0, symName: __ZNK7facesdk15LivenessSession6paramsEv, symObjAddr: 0xB10, symBinAddr: 0x97AC, symSize: 0x4 }
  - { offset: 0x9DCE3, size: 0x8, addend: 0x0, symName: __ZN7facesdk15LivenessSession13startNewFrameEv, symObjAddr: 0xB14, symBinAddr: 0x97B0, symSize: 0xB0 }
  - { offset: 0x9DE71, size: 0x8, addend: 0x0, symName: __ZNSt3__16vectorIN7facesdk12LFrameResultENS_9allocatorIS2_EEE24__emplace_back_slow_pathIJEEEPS2_DpOT_, symObjAddr: 0xEC28, symBinAddr: 0x17598, symSize: 0x1D0 }
  - { offset: 0x9E516, size: 0x8, addend: 0x0, symName: __ZN7facesdk15LivenessSession5abortEv, symObjAddr: 0xBC4, symBinAddr: 0x9860, symSize: 0x58 }
  - { offset: 0x9E62F, size: 0x8, addend: 0x0, symName: __ZN7facesdk15LivenessSession15faceDetectionOkERKNSt3__16vectorIN2cv5Rect_IiEENS1_9allocatorIS5_EEEERKNS2_INS2_INS3_6Point_IiEENS6_ISC_EEEENS6_ISE_EEEERKNS2_INS2_IfNS6_IfEEEENS6_ISK_EEEE, symObjAddr: 0xC1C, symBinAddr: 0x98B8, symSize: 0xB8 }
  - { offset: 0x9E843, size: 0x8, addend: 0x0, symName: __ZN7facesdk15LivenessSession20facePositionNormalOkERNS_12LFrameResultE, symObjAddr: 0xD0C, symBinAddr: 0x9970, symSize: 0x194 }
  - { offset: 0x9EB01, size: 0x8, addend: 0x0, symName: __ZN7facesdk15LivenessSession18facePositionNearOkERNS_12LFrameResultE, symObjAddr: 0xEA0, symBinAddr: 0x9B04, symSize: 0xF4 }
  - { offset: 0x9EC08, size: 0x8, addend: 0x0, symName: __ZN7facesdk15LivenessSession17faceOrientationOkERNS_12LFrameResultERbRKN2cv6Point_IiEE, symObjAddr: 0xF94, symBinAddr: 0x9BF8, symSize: 0x90 }
  - { offset: 0x9EDB8, size: 0x8, addend: 0x0, symName: __ZN7facesdk15LivenessSession21faceOrientationNearOkERNS_12LFrameResultERKN2cv6Point_IiEE, symObjAddr: 0x1158, symBinAddr: 0x9DBC, symSize: 0x180 }
  - { offset: 0x9EF19, size: 0x8, addend: 0x0, symName: __ZN7facesdk15LivenessSession23faceOrientationNormalOkERNS_12LFrameResultERb, symObjAddr: 0x1024, symBinAddr: 0x9C88, symSize: 0x134 }
  - { offset: 0x9F10C, size: 0x8, addend: 0x0, symName: __ZN7facesdk15LivenessSession12brightnessOkEf, symObjAddr: 0x1394, symBinAddr: 0x9F3C, symSize: 0x50 }
  - { offset: 0x9F180, size: 0x8, addend: 0x0, symName: __ZN7facesdk15LivenessSession12flawDetectedENS_11eFL_MessageERKNSt3__16vectorIfNS2_9allocatorIfEEEE, symObjAddr: 0x13E4, symBinAddr: 0x9F8C, symSize: 0x64 }
  - { offset: 0x9F245, size: 0x8, addend: 0x0, symName: __ZN7facesdk15LivenessSession22needInjectionCheckDataERNS_12LFrameResultERKN2cv3MatE, symObjAddr: 0x1448, symBinAddr: 0x9FF0, symSize: 0x210 }
  - { offset: 0x9F250, size: 0x8, addend: 0x0, symName: __ZNKSt3__16vectorIfNS_9allocatorIfEEE20__throw_out_of_rangeB8ne180100Ev, symObjAddr: 0xEE48, symBinAddr: 0x177B8, symSize: 0x14 }
  - { offset: 0x9F27A, size: 0x8, addend: 0x0, symName: __ZNSt3__120__throw_out_of_rangeB8ne180100EPKc, symObjAddr: 0xEE5C, symBinAddr: 0x177CC, symSize: 0x50 }
  - { offset: 0x9F4C7, size: 0x8, addend: 0x0, symName: __ZN7facesdk15LivenessSession22needInjectionCheckDataERNS_12LFrameResultERKN2cv3MatE, symObjAddr: 0x1448, symBinAddr: 0x9FF0, symSize: 0x210 }
  - { offset: 0x9FA2C, size: 0x8, addend: 0x0, symName: __ZN7facesdk15LivenessSession13blinkDetectedEN6common4type4spanIKN2cv6Point_IiEELm18446744073709551615EEES8_, symObjAddr: 0x1658, symBinAddr: 0xA200, symSize: 0x20C }
  - { offset: 0x9FD9F, size: 0x8, addend: 0x0, symName: __ZN7facesdk15LivenessSession20blinkDetectionNeededEv, symObjAddr: 0x1864, symBinAddr: 0xA40C, symSize: 0x30 }
  - { offset: 0x9FE05, size: 0x8, addend: 0x0, symName: __ZN7facesdk15LivenessSession23holdStillTimeoutReachedEv, symObjAddr: 0x1894, symBinAddr: 0xA43C, symSize: 0xEC }
  - { offset: 0xA01FD, size: 0x8, addend: 0x0, symName: __ZN7facesdk15LivenessSession16saveStageResultsERKN2cv3MatERKNS_5LFaceE, symObjAddr: 0x1980, symBinAddr: 0xA528, symSize: 0x178 }
  - { offset: 0xA0639, size: 0x8, addend: 0x0, symName: __ZNSt3__16vectorIN2cv6Point_IiEENS_9allocatorIS3_EEE18__assign_with_sizeB8ne180100IPS3_S8_EEvT_T0_l, symObjAddr: 0xEED0, symBinAddr: 0x17840, symSize: 0x3B0 }
  - { offset: 0xA0E24, size: 0x8, addend: 0x0, symName: __ZNSt3__16vectorIN7facesdk6LStageENS_9allocatorIS2_EEE24__emplace_back_slow_pathIJEEEPS2_DpOT_, symObjAddr: 0xF280, symBinAddr: 0x17BF0, symSize: 0x228 }
  - { offset: 0xA0E69, size: 0x8, addend: 0x0, symName: __ZNK7facesdk15LivenessSession17stageResultsSavedEv, symObjAddr: 0x1AF8, symBinAddr: 0xA6A0, symSize: 0x44 }
  - { offset: 0xA1056, size: 0x8, addend: 0x0, symName: __ZN7facesdk15LivenessSession23finalizeProcessingStageEv, symObjAddr: 0x1B3C, symBinAddr: 0xA6E4, symSize: 0x214 }
  - { offset: 0xA131D, size: 0x8, addend: 0x0, symName: __ZNSt3__16vectorIN7facesdk6LStageENS_9allocatorIS2_EEE24__emplace_back_slow_pathIJEEEPS2_DpOT_, symObjAddr: 0xF280, symBinAddr: 0x17BF0, symSize: 0x228 }
  - { offset: 0xA1A2E, size: 0x8, addend: 0x0, symName: __ZNK7facesdk15LivenessSession13currentTargetEv, symObjAddr: 0x1D50, symBinAddr: 0xA8F8, symSize: 0x14 }
  - { offset: 0xA1A58, size: 0x8, addend: 0x0, symName: __ZNK7facesdk15LivenessSession13currentTargetEv, symObjAddr: 0x1D50, symBinAddr: 0xA8F8, symSize: 0x14 }
  - { offset: 0xA1A7E, size: 0x8, addend: 0x0, symName: __ZNK7facesdk15LivenessSession13currentTargetEv, symObjAddr: 0x1D50, symBinAddr: 0xA8F8, symSize: 0x14 }
  - { offset: 0xA1AA3, size: 0x8, addend: 0x0, symName: __ZNK7facesdk15LivenessSession13currentTargetEv, symObjAddr: 0x1D50, symBinAddr: 0xA8F8, symSize: 0x14 }
  - { offset: 0xA1AC8, size: 0x8, addend: 0x0, symName: __ZNK7facesdk15LivenessSession13currentTargetEv, symObjAddr: 0x1D50, symBinAddr: 0xA8F8, symSize: 0x14 }
  - { offset: 0xA1AF0, size: 0x8, addend: 0x0, symName: __ZNK7facesdk15LivenessSession12targetSectorEv, symObjAddr: 0x1D64, symBinAddr: 0xA90C, symSize: 0x20 }
  - { offset: 0xA1B41, size: 0x8, addend: 0x0, symName: __ZNK7facesdk15LivenessSession14targetExposureEv, symObjAddr: 0x1D84, symBinAddr: 0xA92C, symSize: 0x20 }
  - { offset: 0xA1B6D, size: 0x8, addend: 0x0, symName: __ZNK7facesdk15LivenessSession14targetExposureEv, symObjAddr: 0x1D84, symBinAddr: 0xA92C, symSize: 0x20 }
  - { offset: 0xA1BCA, size: 0x8, addend: 0x0, symName: __ZNK7facesdk15LivenessSession7resultsEv, symObjAddr: 0x1DA4, symBinAddr: 0xA94C, symSize: 0x8 }
  - { offset: 0xA3CD7, size: 0x8, addend: 0x0, symName: __ZN7facesdk15LivenessSession15finalizePackageEv, symObjAddr: 0x1DE4, symBinAddr: 0xA954, symSize: 0x1CC8 }
  - { offset: 0xAC01A, size: 0x8, addend: 0x0, symName: __ZN7facesdk15LivenessSession16finalizeMetadataEv, symObjAddr: 0x3AAC, symBinAddr: 0xC61C, symSize: 0x3A0 }
  - { offset: 0xAD1C6, size: 0x8, addend: 0x0, symName: __ZN8nlohmann16json_abi_v3_12_010basic_jsonINSt3__13mapENS2_6vectorENS2_12basic_stringIcNS2_11char_traitsIcEENS2_9allocatorIcEEEEbxydS8_NS0_14adl_serializerENS4_IhNS8_IhEEEEvE4dataD1Ev, symObjAddr: 0xD484, symBinAddr: 0x15E80, symSize: 0x2C }
  - { offset: 0xAD1FE, size: 0x8, addend: 0x0, symName: __ZN8nlohmann16json_abi_v3_12_010basic_jsonINSt3__13mapENS2_6vectorENS2_12basic_stringIcNS2_11char_traitsIcEENS2_9allocatorIcEEEEbxydS8_NS0_14adl_serializerENS4_IhNS8_IhEEEEvE9push_backERKSE_, symObjAddr: 0x4098, symBinAddr: 0xCC08, symSize: 0x164 }
  - { offset: 0xAD686, size: 0x8, addend: 0x0, symName: __ZN8nlohmann16json_abi_v3_12_010basic_jsonINSt3__13mapENS2_6vectorENS2_12basic_stringIcNS2_11char_traitsIcEENS2_9allocatorIcEEEEbxydS8_NS0_14adl_serializerENS4_IhNS8_IhEEEEvE9push_backEOSE_, symObjAddr: 0x3F40, symBinAddr: 0xCAB0, symSize: 0x158 }
  - { offset: 0xADAB4, size: 0x8, addend: 0x0, symName: __ZN8nlohmann16json_abi_v3_12_010basic_jsonINSt3__13mapENS2_6vectorENS2_12basic_stringIcNS2_11char_traitsIcEENS2_9allocatorIcEEEEbxydS8_NS0_14adl_serializerENS4_IhNS8_IhEEEEvE7to_bsonERKSE_, symObjAddr: 0x41FC, symBinAddr: 0xCD6C, symSize: 0xD8 }
  - { offset: 0xADF40, size: 0x8, addend: 0x0, symName: __ZN8nlohmann16json_abi_v3_12_06detail10type_error6createIPNS0_10basic_jsonINSt3__13mapENS5_6vectorENS5_12basic_stringIcNS5_11char_traitsIcEENS5_9allocatorIcEEEEbxydSB_NS0_14adl_serializerENS7_IhNSB_IhEEEEvEELi0EEES2_iRKSD_T_, symObjAddr: 0xF8A4, symBinAddr: 0x18214, symSize: 0x1CC }
  - { offset: 0xAED7A, size: 0x8, addend: 0x0, symName: __ZNSt3__114__split_bufferIN8nlohmann16json_abi_v3_12_010basic_jsonINS_3mapENS_6vectorENS_12basic_stringIcNS_11char_traitsIcEENS_9allocatorIcEEEEbxydS9_NS2_14adl_serializerENS5_IhNS9_IhEEEEvEERNS9_ISF_EEED1Ev, symObjAddr: 0xD9F4, symBinAddr: 0x163DC, symSize: 0x54 }
  - { offset: 0xAF340, size: 0x8, addend: 0x0, symName: __ZN8nlohmann16json_abi_v3_12_010basic_jsonINSt3__13mapENS2_6vectorENS2_12basic_stringIcNS2_11char_traitsIcEENS2_9allocatorIcEEEEbxydS8_NS0_14adl_serializerENS4_IhNS8_IhEEEEvE2atIRKPKcLi0EEERSE_OT_, symObjAddr: 0x539C, symBinAddr: 0xDF0C, symSize: 0x1F0 }
  - { offset: 0xAF995, size: 0x8, addend: 0x0, symName: __ZN8nlohmann16json_abi_v3_12_010basic_jsonINSt3__13mapENS2_6vectorENS2_12basic_stringIcNS2_11char_traitsIcEENS2_9allocatorIcEEEEbxydS8_NS0_14adl_serializerENS4_IhNS8_IhEEEEvEC2ESt16initializer_listINS0_6detail8json_refISE_EEEbNSG_7value_tE, symObjAddr: 0x128E4, symBinAddr: 0x1AF24, symSize: 0x2D8 }
  - { offset: 0xB03B9, size: 0x8, addend: 0x0, symName: __ZN8nlohmann16json_abi_v3_12_06detail20external_constructorILNS1_7value_tE3EE9constructINS0_10basic_jsonINSt3__13mapENS7_6vectorENS7_12basic_stringIcNS7_11char_traitsIcEENS7_9allocatorIcEEEEbxydSD_NS0_14adl_serializerENS9_IhNSD_IhEEEEvEEA4_cLi0EEEvRT_RKT0_, symObjAddr: 0x13198, symBinAddr: 0x1B7D8, symSize: 0xEC }
  - { offset: 0xB09D0, size: 0x8, addend: 0x0, symName: __ZN8nlohmann16json_abi_v3_12_010basic_jsonINSt3__13mapENS2_6vectorENS2_12basic_stringIcNS2_11char_traitsIcEENS2_9allocatorIcEEEEbxydS8_NS0_14adl_serializerENS4_IhNS8_IhEEEEvEixESA_, symObjAddr: 0xF784, symBinAddr: 0x180F4, symSize: 0x120 }
  - { offset: 0xB0DBE, size: 0x8, addend: 0x0, symName: __ZNSt3__16vectorIN8nlohmann16json_abi_v3_12_010basic_jsonINS_3mapES0_NS_12basic_stringIcNS_11char_traitsIcEENS_9allocatorIcEEEEbxydS8_NS2_14adl_serializerENS0_IhNS8_IhEEEEvEENS8_ISE_EEE21__push_back_slow_pathISE_EEPSE_OT_, symObjAddr: 0xDA48, symBinAddr: 0x16430, symSize: 0x118 }
  - { offset: 0xB12D9, size: 0x8, addend: 0x0, symName: __ZNK8nlohmann16json_abi_v3_12_010basic_jsonINSt3__13mapENS2_6vectorENS2_12basic_stringIcNS2_11char_traitsIcEENS2_9allocatorIcEEEEbxydS8_NS0_14adl_serializerENS4_IhNS8_IhEEEEvE9type_nameEv, symObjAddr: 0xC3AC, symBinAddr: 0x14E48, symSize: 0x28 }
  - { offset: 0xB141F, size: 0x8, addend: 0x0, symName: __ZNSt3__16vectorIN8nlohmann16json_abi_v3_12_010basic_jsonINS_3mapES0_NS_12basic_stringIcNS_11char_traitsIcEENS_9allocatorIcEEEEbxydS8_NS2_14adl_serializerENS0_IhNS8_IhEEEEvEENS8_ISE_EEE21__push_back_slow_pathIRKSE_EEPSE_OT_, symObjAddr: 0x10810, symBinAddr: 0x1916C, symSize: 0x158 }
  - { offset: 0xB1E8C, size: 0x8, addend: 0x0, symName: __ZN8nlohmann16json_abi_v3_12_010basic_jsonINSt3__13mapENS2_6vectorENS2_12basic_stringIcNS2_11char_traitsIcEENS2_9allocatorIcEEEEbxydS8_NS0_14adl_serializerENS4_IhNS8_IhEEEEvE7to_bsonERKSE_NS0_6detail14output_adapterIhNS5_IhNS6_IhEESC_EEEE, symObjAddr: 0x10968, symBinAddr: 0x192C4, symSize: 0xF8 }
  - { offset: 0xB21B3, size: 0x8, addend: 0x0, symName: __ZN8nlohmann16json_abi_v3_12_06detail14output_adapterIhNSt3__112basic_stringIhNS3_11char_traitsIhEENS3_9allocatorIhEEEEED1Ev, symObjAddr: 0x10A60, symBinAddr: 0x193BC, symSize: 0x68 }
  - { offset: 0xB245D, size: 0x8, addend: 0x0, symName: __ZN7facesdk15LivenessSession16addDataToPackageEPKhRKN8nlohmann16json_abi_v3_12_010basic_jsonINSt3__13mapENS6_6vectorENS6_12basic_stringIcNS6_11char_traitsIcEENS6_9allocatorIcEEEEbxydSC_NS4_14adl_serializerENS8_IhNSC_IhEEEEvEE, symObjAddr: 0x42D4, symBinAddr: 0xCE44, symSize: 0xE8 }
  - { offset: 0xB26D1, size: 0x8, addend: 0x0, symName: __ZN7facesdk15LivenessSession12saveDepthMapEPKhRKN8nlohmann16json_abi_v3_12_010basic_jsonINSt3__13mapENS6_6vectorENS6_12basic_stringIcNS6_11char_traitsIcEENS6_9allocatorIcEEEEbxydSC_NS4_14adl_serializerENS8_IhNSC_IhEEEEvEE, symObjAddr: 0x43BC, symBinAddr: 0xCF2C, symSize: 0x4D8 }
  - { offset: 0xB37E9, size: 0x8, addend: 0x0, symName: __ZN7facesdk15LivenessSession14saveCustomDataEPKhRKN8nlohmann16json_abi_v3_12_010basic_jsonINSt3__13mapENS6_6vectorENS6_12basic_stringIcNS6_11char_traitsIcEENS6_9allocatorIcEEEEbxydSC_NS4_14adl_serializerENS8_IhNSC_IhEEEEvEE, symObjAddr: 0x4894, symBinAddr: 0xD404, symSize: 0x200 }
  - { offset: 0xB48E7, size: 0x8, addend: 0x0, symName: __ZNK8nlohmann16json_abi_v3_12_010basic_jsonINSt3__13mapENS2_6vectorENS2_12basic_stringIcNS2_11char_traitsIcEENS2_9allocatorIcEEEEbxydS8_NS0_14adl_serializerENS4_IhNS8_IhEEEEvE2atIRA9_KcLi0EEERKSE_OT_, symObjAddr: 0x4A94, symBinAddr: 0xD604, symSize: 0x1EC }
  - { offset: 0xB4F55, size: 0x8, addend: 0x0, symName: __ZNK8nlohmann16json_abi_v3_12_010basic_jsonINSt3__13mapENS2_6vectorENS2_12basic_stringIcNS2_11char_traitsIcEENS2_9allocatorIcEEEEbxydS8_NS0_14adl_serializerENS4_IhNS8_IhEEEEvE2atIRA10_KcLi0EEERKSE_OT_, symObjAddr: 0x4C80, symBinAddr: 0xD7F0, symSize: 0x1EC }
  - { offset: 0xB55C3, size: 0x8, addend: 0x0, symName: __ZNK8nlohmann16json_abi_v3_12_010basic_jsonINSt3__13mapENS2_6vectorENS2_12basic_stringIcNS2_11char_traitsIcEENS2_9allocatorIcEEEEbxydS8_NS0_14adl_serializerENS4_IhNS8_IhEEEEvE2atIRA6_KcLi0EEERKSE_OT_, symObjAddr: 0x4E6C, symBinAddr: 0xD9DC, symSize: 0x1EC }
  - { offset: 0xB5C3B, size: 0x8, addend: 0x0, symName: __ZNSt3__119__allocator_destroyB8ne180100INS_9allocatorIN7facesdk6LStageEEENS_16reverse_iteratorIPS3_EES7_EEvRT_T0_T1_, symObjAddr: 0xE99C, symBinAddr: 0x1730C, symSize: 0x144 }
  - { offset: 0xB5EC0, size: 0x8, addend: 0x0, symName: __ZN8nlohmann16json_abi_v3_12_010basic_jsonINSt3__13mapENS2_6vectorENS2_12basic_stringIcNS2_11char_traitsIcEENS2_9allocatorIcEEEEbxydS8_NS0_14adl_serializerENS4_IhNS8_IhEEEEvE12emplace_backIJRKSE_EEERSE_DpOT_, symObjAddr: 0x5244, symBinAddr: 0xDDB4, symSize: 0x158 }
  - { offset: 0xB638A, size: 0x8, addend: 0x0, symName: __ZNSt3__16vectorIN8nlohmann16json_abi_v3_12_010basic_jsonINS_3mapES0_NS_12basic_stringIcNS_11char_traitsIcEENS_9allocatorIcEEEEbxydS8_NS2_14adl_serializerENS0_IhNS8_IhEEEEvEENS8_ISE_EEE21__push_back_slow_pathIRKSE_EEPSE_OT_, symObjAddr: 0x10810, symBinAddr: 0x1916C, symSize: 0x158 }
  - { offset: 0xB6395, size: 0x8, addend: 0x0, symName: __ZN8nlohmann16json_abi_v3_12_06detail10type_error6createIPKNS0_10basic_jsonINSt3__13mapENS5_6vectorENS5_12basic_stringIcNS5_11char_traitsIcEENS5_9allocatorIcEEEEbxydSB_NS0_14adl_serializerENS7_IhNSB_IhEEEEvEELi0EEES2_iRKSD_T_, symObjAddr: 0xC15C, symBinAddr: 0x14BF8, symSize: 0x1CC }
  - { offset: 0xB71BC, size: 0x8, addend: 0x0, symName: __ZN8nlohmann16json_abi_v3_12_06detail12out_of_range6createIPKNS0_10basic_jsonINSt3__13mapENS5_6vectorENS5_12basic_stringIcNS5_11char_traitsIcEENS5_9allocatorIcEEEEbxydSB_NS0_14adl_serializerENS7_IhNSB_IhEEEEvEELi0EEES2_iRKSD_T_, symObjAddr: 0x115B4, symBinAddr: 0x19EA8, symSize: 0x1D0 }
  - { offset: 0xB8510, size: 0x8, addend: 0x0, symName: __ZNSt3__16vectorIN8nlohmann16json_abi_v3_12_010basic_jsonINS_3mapES0_NS_12basic_stringIcNS_11char_traitsIcEENS_9allocatorIcEEEEbxydS8_NS2_14adl_serializerENS0_IhNS8_IhEEEEvEENS8_ISE_EEE24__emplace_back_slow_pathIJRKSE_EEEPSE_DpOT_, symObjAddr: 0x125BC, symBinAddr: 0x1ABFC, symSize: 0x158 }
  - { offset: 0xB8B09, size: 0x8, addend: 0x0, symName: __ZN8nlohmann16json_abi_v3_12_06detail12out_of_range6createIPNS0_10basic_jsonINSt3__13mapENS5_6vectorENS5_12basic_stringIcNS5_11char_traitsIcEENS5_9allocatorIcEEEEbxydSB_NS0_14adl_serializerENS7_IhNSB_IhEEEEvEELi0EEES2_iRKSD_T_, symObjAddr: 0x12714, symBinAddr: 0x1AD54, symSize: 0x1D0 }
  - { offset: 0xB9FDE, size: 0x8, addend: 0x0, symName: __ZN7facesdk14LSessionParamsC2ERKN8nlohmann16json_abi_v3_12_010basic_jsonINSt3__13mapENS4_6vectorENS4_12basic_stringIcNS4_11char_traitsIcEENS4_9allocatorIcEEEEbxydSA_NS2_14adl_serializerENS6_IhNSA_IhEEEEvEE, symObjAddr: 0x558C, symBinAddr: 0xE0FC, symSize: 0xF08 }
  - { offset: 0xBC719, size: 0x8, addend: 0x0, symName: __ZNK8nlohmann16json_abi_v3_12_010basic_jsonINSt3__13mapENS2_6vectorENS2_12basic_stringIcNS2_11char_traitsIcEENS2_9allocatorIcEEEEbxydS8_NS0_14adl_serializerENS4_IhNS8_IhEEEEvE5valueIN7facesdk12eFL_ScenarioERA9_KcSH_Li0EEET1_OT0_OT_, symObjAddr: 0x6494, symBinAddr: 0xF004, symSize: 0x1F0 }
  - { offset: 0xBCE70, size: 0x8, addend: 0x0, symName: __ZNK8nlohmann16json_abi_v3_12_010basic_jsonINSt3__13mapENS2_6vectorENS2_12basic_stringIcNS2_11char_traitsIcEENS2_9allocatorIcEEEEbxydS8_NS0_14adl_serializerENS4_IhNS8_IhEEEEvE2atIRA14_KcLi0EEERKSE_OT_, symObjAddr: 0x6684, symBinAddr: 0xF1F4, symSize: 0x1EC }
  - { offset: 0xBD4E9, size: 0x8, addend: 0x0, symName: __ZNK8nlohmann16json_abi_v3_12_010basic_jsonINSt3__13mapENS2_6vectorENS2_12basic_stringIcNS2_11char_traitsIcEENS2_9allocatorIcEEEEbxydS8_NS0_14adl_serializerENS4_IhNS8_IhEEEEvE5valueIRA41_KcRA16_SG_SA_Li0EEET1_OT0_OT_, symObjAddr: 0x6870, symBinAddr: 0xF3E0, symSize: 0x280 }
  - { offset: 0xBE175, size: 0x8, addend: 0x0, symName: __ZNK8nlohmann16json_abi_v3_12_010basic_jsonINSt3__13mapENS2_6vectorENS2_12basic_stringIcNS2_11char_traitsIcEENS2_9allocatorIcEEEEbxydS8_NS0_14adl_serializerENS4_IhNS8_IhEEEEvE5valueIRA7_KcRA19_SG_SA_Li0EEET1_OT0_OT_, symObjAddr: 0x6AF0, symBinAddr: 0xF660, symSize: 0x280 }
  - { offset: 0xBEDE8, size: 0x8, addend: 0x0, symName: __ZN8nlohmann16json_abi_v3_12_010basic_jsonINSt3__13mapENS2_6vectorENS2_12basic_stringIcNS2_11char_traitsIcEENS2_9allocatorIcEEEEbxydS8_NS0_14adl_serializerENS4_IhNS8_IhEEEEvE6acceptIRSA_EEbOT_b, symObjAddr: 0x6D70, symBinAddr: 0xF8E0, symSize: 0x1D0 }
  - { offset: 0xBF6AA, size: 0x8, addend: 0x0, symName: __ZNK8nlohmann16json_abi_v3_12_010basic_jsonINSt3__13mapENS2_6vectorENS2_12basic_stringIcNS2_11char_traitsIcEENS2_9allocatorIcEEEEbxydS8_NS0_14adl_serializerENS4_IhNS8_IhEEEEvE2atIRA11_KcLi0EEERKSE_OT_, symObjAddr: 0x6F40, symBinAddr: 0xFAB0, symSize: 0x1EC }
  - { offset: 0xBFD18, size: 0x8, addend: 0x0, symName: __ZNK8nlohmann16json_abi_v3_12_010basic_jsonINSt3__13mapENS2_6vectorENS2_12basic_stringIcNS2_11char_traitsIcEENS2_9allocatorIcEEEEbxydS8_NS0_14adl_serializerENS4_IhNS8_IhEEEEvE2atIRA12_KcLi0EEERKSE_OT_, symObjAddr: 0x712C, symBinAddr: 0xFC9C, symSize: 0x1EC }
  - { offset: 0xC036D, size: 0x8, addend: 0x0, symName: __ZNK8nlohmann16json_abi_v3_12_010basic_jsonINSt3__13mapENS2_6vectorENS2_12basic_stringIcNS2_11char_traitsIcEENS2_9allocatorIcEEEEbxydS8_NS0_14adl_serializerENS4_IhNS8_IhEEEEvE5valueIiRA14_KciLi0EEET1_OT0_OT_, symObjAddr: 0x7318, symBinAddr: 0xFE88, symSize: 0x1F4 }
  - { offset: 0xC0AAE, size: 0x8, addend: 0x0, symName: __ZNK8nlohmann16json_abi_v3_12_010basic_jsonINSt3__13mapENS2_6vectorENS2_12basic_stringIcNS2_11char_traitsIcEENS2_9allocatorIcEEEEbxydS8_NS0_14adl_serializerENS4_IhNS8_IhEEEEvE5valueIfRA4_KcfLi0EEET1_OT0_OT_, symObjAddr: 0x750C, symBinAddr: 0x1007C, symSize: 0x1F4 }
  - { offset: 0xC11CE, size: 0x8, addend: 0x0, symName: __ZNK8nlohmann16json_abi_v3_12_010basic_jsonINSt3__13mapENS2_6vectorENS2_12basic_stringIcNS2_11char_traitsIcEENS2_9allocatorIcEEEEbxydS8_NS0_14adl_serializerENS4_IhNS8_IhEEEEvE5valueIfRA12_KcfLi0EEET1_OT0_OT_, symObjAddr: 0x7700, symBinAddr: 0x10270, symSize: 0x1F4 }
  - { offset: 0xC1912, size: 0x8, addend: 0x0, symName: __ZNK8nlohmann16json_abi_v3_12_010basic_jsonINSt3__13mapENS2_6vectorENS2_12basic_stringIcNS2_11char_traitsIcEENS2_9allocatorIcEEEEbxydS8_NS0_14adl_serializerENS4_IhNS8_IhEEEEvE5valueIiRA18_KciLi0EEET1_OT0_OT_, symObjAddr: 0x78F4, symBinAddr: 0x10464, symSize: 0x1F4 }
  - { offset: 0xC2032, size: 0x8, addend: 0x0, symName: __ZNK8nlohmann16json_abi_v3_12_010basic_jsonINSt3__13mapENS2_6vectorENS2_12basic_stringIcNS2_11char_traitsIcEENS2_9allocatorIcEEEEbxydS8_NS0_14adl_serializerENS4_IhNS8_IhEEEEvE5valueIiRA19_KciLi0EEET1_OT0_OT_, symObjAddr: 0x7AE8, symBinAddr: 0x10658, symSize: 0x1F4 }
  - { offset: 0xC2752, size: 0x8, addend: 0x0, symName: __ZNK8nlohmann16json_abi_v3_12_010basic_jsonINSt3__13mapENS2_6vectorENS2_12basic_stringIcNS2_11char_traitsIcEENS2_9allocatorIcEEEEbxydS8_NS0_14adl_serializerENS4_IhNS8_IhEEEEvE5valueIiRA16_KciLi0EEET1_OT0_OT_, symObjAddr: 0x7CDC, symBinAddr: 0x1084C, symSize: 0x1F4 }
  - { offset: 0xC2E8B, size: 0x8, addend: 0x0, symName: __ZNK8nlohmann16json_abi_v3_12_010basic_jsonINSt3__13mapENS2_6vectorENS2_12basic_stringIcNS2_11char_traitsIcEENS2_9allocatorIcEEEEbxydS8_NS0_14adl_serializerENS4_IhNS8_IhEEEEvE5valueIiRA25_KciLi0EEET1_OT0_OT_, symObjAddr: 0x7ED0, symBinAddr: 0x10A40, symSize: 0x1F4 }
  - { offset: 0xC35C4, size: 0x8, addend: 0x0, symName: __ZNK8nlohmann16json_abi_v3_12_010basic_jsonINSt3__13mapENS2_6vectorENS2_12basic_stringIcNS2_11char_traitsIcEENS2_9allocatorIcEEEEbxydS8_NS0_14adl_serializerENS4_IhNS8_IhEEEEvE5valueIiRA23_KciLi0EEET1_OT0_OT_, symObjAddr: 0x80C4, symBinAddr: 0x10C34, symSize: 0x1F4 }
  - { offset: 0xC3CFD, size: 0x8, addend: 0x0, symName: __ZNK8nlohmann16json_abi_v3_12_010basic_jsonINSt3__13mapENS2_6vectorENS2_12basic_stringIcNS2_11char_traitsIcEENS2_9allocatorIcEEEEbxydS8_NS0_14adl_serializerENS4_IhNS8_IhEEEEvE5valueIiRA27_KciLi0EEET1_OT0_OT_, symObjAddr: 0x82B8, symBinAddr: 0x10E28, symSize: 0x1F4 }
  - { offset: 0xC4436, size: 0x8, addend: 0x0, symName: __ZNK8nlohmann16json_abi_v3_12_010basic_jsonINSt3__13mapENS2_6vectorENS2_12basic_stringIcNS2_11char_traitsIcEENS2_9allocatorIcEEEEbxydS8_NS0_14adl_serializerENS4_IhNS8_IhEEEEvE5valueIiRA22_KciLi0EEET1_OT0_OT_, symObjAddr: 0x84AC, symBinAddr: 0x1101C, symSize: 0x1F4 }
  - { offset: 0xC4B56, size: 0x8, addend: 0x0, symName: __ZNK8nlohmann16json_abi_v3_12_010basic_jsonINSt3__13mapENS2_6vectorENS2_12basic_stringIcNS2_11char_traitsIcEENS2_9allocatorIcEEEEbxydS8_NS0_14adl_serializerENS4_IhNS8_IhEEEEvE5valueIfRA16_KcfLi0EEET1_OT0_OT_, symObjAddr: 0x86A0, symBinAddr: 0x11210, symSize: 0x1F4 }
  - { offset: 0xC5276, size: 0x8, addend: 0x0, symName: __ZNK8nlohmann16json_abi_v3_12_010basic_jsonINSt3__13mapENS2_6vectorENS2_12basic_stringIcNS2_11char_traitsIcEENS2_9allocatorIcEEEEbxydS8_NS0_14adl_serializerENS4_IhNS8_IhEEEEvE5valueIfRA19_KcfLi0EEET1_OT0_OT_, symObjAddr: 0x8894, symBinAddr: 0x11404, symSize: 0x1F4 }
  - { offset: 0xC59AF, size: 0x8, addend: 0x0, symName: __ZNK8nlohmann16json_abi_v3_12_010basic_jsonINSt3__13mapENS2_6vectorENS2_12basic_stringIcNS2_11char_traitsIcEENS2_9allocatorIcEEEEbxydS8_NS0_14adl_serializerENS4_IhNS8_IhEEEEvE5valueIfRA17_KcfLi0EEET1_OT0_OT_, symObjAddr: 0x8A88, symBinAddr: 0x115F8, symSize: 0x1F4 }
  - { offset: 0xC60E8, size: 0x8, addend: 0x0, symName: __ZNK8nlohmann16json_abi_v3_12_010basic_jsonINSt3__13mapENS2_6vectorENS2_12basic_stringIcNS2_11char_traitsIcEENS2_9allocatorIcEEEEbxydS8_NS0_14adl_serializerENS4_IhNS8_IhEEEEvE5valueIfRA20_KcfLi0EEET1_OT0_OT_, symObjAddr: 0x8C7C, symBinAddr: 0x117EC, symSize: 0x1F4 }
  - { offset: 0xC6808, size: 0x8, addend: 0x0, symName: __ZNK8nlohmann16json_abi_v3_12_010basic_jsonINSt3__13mapENS2_6vectorENS2_12basic_stringIcNS2_11char_traitsIcEENS2_9allocatorIcEEEEbxydS8_NS0_14adl_serializerENS4_IhNS8_IhEEEEvE5valueIfRA11_KcfLi0EEET1_OT0_OT_, symObjAddr: 0x8E70, symBinAddr: 0x119E0, symSize: 0x1F4 }
  - { offset: 0xC6F41, size: 0x8, addend: 0x0, symName: __ZNK8nlohmann16json_abi_v3_12_010basic_jsonINSt3__13mapENS2_6vectorENS2_12basic_stringIcNS2_11char_traitsIcEENS2_9allocatorIcEEEEbxydS8_NS0_14adl_serializerENS4_IhNS8_IhEEEEvE5valueIfRA13_KcfLi0EEET1_OT0_OT_, symObjAddr: 0x9064, symBinAddr: 0x11BD4, symSize: 0x1F4 }
  - { offset: 0xC767A, size: 0x8, addend: 0x0, symName: __ZNK8nlohmann16json_abi_v3_12_010basic_jsonINSt3__13mapENS2_6vectorENS2_12basic_stringIcNS2_11char_traitsIcEENS2_9allocatorIcEEEEbxydS8_NS0_14adl_serializerENS4_IhNS8_IhEEEEvE5valueIfRA21_KcfLi0EEET1_OT0_OT_, symObjAddr: 0x9258, symBinAddr: 0x11DC8, symSize: 0x1F4 }
  - { offset: 0xC7DB3, size: 0x8, addend: 0x0, symName: __ZNK8nlohmann16json_abi_v3_12_010basic_jsonINSt3__13mapENS2_6vectorENS2_12basic_stringIcNS2_11char_traitsIcEENS2_9allocatorIcEEEEbxydS8_NS0_14adl_serializerENS4_IhNS8_IhEEEEvE5valueIfRA15_KcfLi0EEET1_OT0_OT_, symObjAddr: 0x944C, symBinAddr: 0x11FBC, symSize: 0x1F4 }
  - { offset: 0xC84D3, size: 0x8, addend: 0x0, symName: __ZNK8nlohmann16json_abi_v3_12_010basic_jsonINSt3__13mapENS2_6vectorENS2_12basic_stringIcNS2_11char_traitsIcEENS2_9allocatorIcEEEEbxydS8_NS0_14adl_serializerENS4_IhNS8_IhEEEEvE5valueIfRA23_KcfLi0EEET1_OT0_OT_, symObjAddr: 0x9640, symBinAddr: 0x121B0, symSize: 0x1F4 }
  - { offset: 0xC8BF3, size: 0x8, addend: 0x0, symName: __ZNK8nlohmann16json_abi_v3_12_010basic_jsonINSt3__13mapENS2_6vectorENS2_12basic_stringIcNS2_11char_traitsIcEENS2_9allocatorIcEEEEbxydS8_NS0_14adl_serializerENS4_IhNS8_IhEEEEvE5valueIRfRA22_KcfLi0EEET1_OT0_OT_, symObjAddr: 0x9834, symBinAddr: 0x123A4, symSize: 0x1F4 }
  - { offset: 0xC9313, size: 0x8, addend: 0x0, symName: __ZNK8nlohmann16json_abi_v3_12_010basic_jsonINSt3__13mapENS2_6vectorENS2_12basic_stringIcNS2_11char_traitsIcEENS2_9allocatorIcEEEEbxydS8_NS0_14adl_serializerENS4_IhNS8_IhEEEEvE5valueIRfRA14_KcfLi0EEET1_OT0_OT_, symObjAddr: 0x9A28, symBinAddr: 0x12598, symSize: 0x1F4 }
  - { offset: 0xC9A33, size: 0x8, addend: 0x0, symName: __ZNK8nlohmann16json_abi_v3_12_010basic_jsonINSt3__13mapENS2_6vectorENS2_12basic_stringIcNS2_11char_traitsIcEENS2_9allocatorIcEEEEbxydS8_NS0_14adl_serializerENS4_IhNS8_IhEEEEvE5valueIfRA14_KcfLi0EEET1_OT0_OT_, symObjAddr: 0x9C1C, symBinAddr: 0x1278C, symSize: 0x1F4 }
  - { offset: 0xCA159, size: 0x8, addend: 0x0, symName: __ZNK8nlohmann16json_abi_v3_12_010basic_jsonINSt3__13mapENS2_6vectorENS2_12basic_stringIcNS2_11char_traitsIcEENS2_9allocatorIcEEEEbxydS8_NS0_14adl_serializerENS4_IhNS8_IhEEEEvE5valueIbRA14_KcbLi0EEET1_OT0_OT_, symObjAddr: 0x9E10, symBinAddr: 0x12980, symSize: 0x1F0 }
  - { offset: 0xCA802, size: 0x8, addend: 0x0, symName: __ZNK8nlohmann16json_abi_v3_12_010basic_jsonINSt3__13mapENS2_6vectorENS2_12basic_stringIcNS2_11char_traitsIcEENS2_9allocatorIcEEEEbxydS8_NS0_14adl_serializerENS4_IhNS8_IhEEEEvE5valueIbRA12_KcbLi0EEET1_OT0_OT_, symObjAddr: 0xA000, symBinAddr: 0x12B70, symSize: 0x1F0 }
  - { offset: 0xCAEAB, size: 0x8, addend: 0x0, symName: __ZNK8nlohmann16json_abi_v3_12_010basic_jsonINSt3__13mapENS2_6vectorENS2_12basic_stringIcNS2_11char_traitsIcEENS2_9allocatorIcEEEEbxydS8_NS0_14adl_serializerENS4_IhNS8_IhEEEEvE5valueIbRA16_KcbLi0EEET1_OT0_OT_, symObjAddr: 0xA1F0, symBinAddr: 0x12D60, symSize: 0x1F0 }
  - { offset: 0xCB554, size: 0x8, addend: 0x0, symName: __ZNK8nlohmann16json_abi_v3_12_010basic_jsonINSt3__13mapENS2_6vectorENS2_12basic_stringIcNS2_11char_traitsIcEENS2_9allocatorIcEEEEbxydS8_NS0_14adl_serializerENS4_IhNS8_IhEEEEvE5valueIbRA17_KcbLi0EEET1_OT0_OT_, symObjAddr: 0xA3E0, symBinAddr: 0x12F50, symSize: 0x1F0 }
  - { offset: 0xCBBFD, size: 0x8, addend: 0x0, symName: __ZNK8nlohmann16json_abi_v3_12_010basic_jsonINSt3__13mapENS2_6vectorENS2_12basic_stringIcNS2_11char_traitsIcEENS2_9allocatorIcEEEEbxydS8_NS0_14adl_serializerENS4_IhNS8_IhEEEEvE5valueIbRA25_KcbLi0EEET1_OT0_OT_, symObjAddr: 0xA5D0, symBinAddr: 0x13140, symSize: 0x1F0 }
  - { offset: 0xCC2BF, size: 0x8, addend: 0x0, symName: __ZNK8nlohmann16json_abi_v3_12_010basic_jsonINSt3__13mapENS2_6vectorENS2_12basic_stringIcNS2_11char_traitsIcEENS2_9allocatorIcEEEEbxydS8_NS0_14adl_serializerENS4_IhNS8_IhEEEEvE5valueIbRA26_KcbLi0EEET1_OT0_OT_, symObjAddr: 0xA7C0, symBinAddr: 0x13330, symSize: 0x1F0 }
  - { offset: 0xCC968, size: 0x8, addend: 0x0, symName: __ZNK8nlohmann16json_abi_v3_12_010basic_jsonINSt3__13mapENS2_6vectorENS2_12basic_stringIcNS2_11char_traitsIcEENS2_9allocatorIcEEEEbxydS8_NS0_14adl_serializerENS4_IhNS8_IhEEEEvE5valueIRbRA16_KcbLi0EEET1_OT0_OT_, symObjAddr: 0xA9B0, symBinAddr: 0x13520, symSize: 0x1F0 }
  - { offset: 0xCD011, size: 0x8, addend: 0x0, symName: __ZNK8nlohmann16json_abi_v3_12_010basic_jsonINSt3__13mapENS2_6vectorENS2_12basic_stringIcNS2_11char_traitsIcEENS2_9allocatorIcEEEEbxydS8_NS0_14adl_serializerENS4_IhNS8_IhEEEEvE5valueIbRA18_KcbLi0EEET1_OT0_OT_, symObjAddr: 0xABA0, symBinAddr: 0x13710, symSize: 0x1F0 }
  - { offset: 0xCD6BA, size: 0x8, addend: 0x0, symName: __ZNK8nlohmann16json_abi_v3_12_010basic_jsonINSt3__13mapENS2_6vectorENS2_12basic_stringIcNS2_11char_traitsIcEENS2_9allocatorIcEEEEbxydS8_NS0_14adl_serializerENS4_IhNS8_IhEEEEvE5valueIiRA13_KciLi0EEET1_OT0_OT_, symObjAddr: 0xAD90, symBinAddr: 0x13900, symSize: 0x1F4 }
  - { offset: 0xCDDDA, size: 0x8, addend: 0x0, symName: __ZNK8nlohmann16json_abi_v3_12_010basic_jsonINSt3__13mapENS2_6vectorENS2_12basic_stringIcNS2_11char_traitsIcEENS2_9allocatorIcEEEEbxydS8_NS0_14adl_serializerENS4_IhNS8_IhEEEEvE5valueIiRA17_KciLi0EEET1_OT0_OT_, symObjAddr: 0xAF84, symBinAddr: 0x13AF4, symSize: 0x1F4 }
  - { offset: 0xCE4FA, size: 0x8, addend: 0x0, symName: __ZNK8nlohmann16json_abi_v3_12_010basic_jsonINSt3__13mapENS2_6vectorENS2_12basic_stringIcNS2_11char_traitsIcEENS2_9allocatorIcEEEEbxydS8_NS0_14adl_serializerENS4_IhNS8_IhEEEEvE5valueIiRA11_KciLi0EEET1_OT0_OT_, symObjAddr: 0xB178, symBinAddr: 0x13CE8, symSize: 0x1F4 }
  - { offset: 0xCEC33, size: 0x8, addend: 0x0, symName: __ZNK8nlohmann16json_abi_v3_12_010basic_jsonINSt3__13mapENS2_6vectorENS2_12basic_stringIcNS2_11char_traitsIcEENS2_9allocatorIcEEEEbxydS8_NS0_14adl_serializerENS4_IhNS8_IhEEEEvE5valueIRA5_KcRA15_SG_SA_Li0EEET1_OT0_OT_, symObjAddr: 0xB36C, symBinAddr: 0x13EDC, symSize: 0x280 }
  - { offset: 0xCF8A6, size: 0x8, addend: 0x0, symName: __ZNK8nlohmann16json_abi_v3_12_010basic_jsonINSt3__13mapENS2_6vectorENS2_12basic_stringIcNS2_11char_traitsIcEENS2_9allocatorIcEEEEbxydS8_NS0_14adl_serializerENS4_IhNS8_IhEEEEvE5valueIiRA15_KciLi0EEET1_OT0_OT_, symObjAddr: 0xB5EC, symBinAddr: 0x1415C, symSize: 0x1F4 }
  - { offset: 0xCFFC6, size: 0x8, addend: 0x0, symName: __ZNK8nlohmann16json_abi_v3_12_010basic_jsonINSt3__13mapENS2_6vectorENS2_12basic_stringIcNS2_11char_traitsIcEENS2_9allocatorIcEEEEbxydS8_NS0_14adl_serializerENS4_IhNS8_IhEEEEvE2atIRA4_KcLi0EEERKSE_OT_, symObjAddr: 0xB7E0, symBinAddr: 0x14350, symSize: 0x1EC }
  - { offset: 0xD0870, size: 0x8, addend: 0x0, symName: __ZNK8nlohmann16json_abi_v3_12_06detail9iter_implIKNS0_10basic_jsonINSt3__13mapENS4_6vectorENS4_12basic_stringIcNS4_11char_traitsIcEENS4_9allocatorIcEEEEbxydSA_NS0_14adl_serializerENS6_IhNSA_IhEEEEvEEEeqISI_LDn0EEEbRKT_, symObjAddr: 0xCBF0, symBinAddr: 0x1568C, symSize: 0x124 }
  - { offset: 0xD0AC4, size: 0x8, addend: 0x0, symName: __ZNK8nlohmann16json_abi_v3_12_06detail9iter_implIKNS0_10basic_jsonINSt3__13mapENS4_6vectorENS4_12basic_stringIcNS4_11char_traitsIcEENS4_9allocatorIcEEEEbxydSA_NS0_14adl_serializerENS6_IhNSA_IhEEEEvEEEptEv, symObjAddr: 0x13284, symBinAddr: 0x1B8C4, symSize: 0x100 }
  - { offset: 0xD15C8, size: 0x8, addend: 0x0, symName: __ZN8nlohmann16json_abi_v3_12_06detail6parserINS0_10basic_jsonINSt3__13mapENS4_6vectorENS4_12basic_stringIcNS4_11char_traitsIcEENS4_9allocatorIcEEEEbxydSA_NS0_14adl_serializerENS6_IhNSA_IhEEEEvEENS1_22iterator_input_adapterINS4_11__wrap_iterIPKcEEEEEC2EOSM_NS4_8functionIFbiNS1_13parse_event_tERSG_EEEbb, symObjAddr: 0x13674, symBinAddr: 0x1BCB4, symSize: 0x13C }
  - { offset: 0xD17DD, size: 0x8, addend: 0x0, symName: __ZN8nlohmann16json_abi_v3_12_06detail6parserINS0_10basic_jsonINSt3__13mapENS4_6vectorENS4_12basic_stringIcNS4_11char_traitsIcEENS4_9allocatorIcEEEEbxydSA_NS0_14adl_serializerENS6_IhNSA_IhEEEEvEENS1_22iterator_input_adapterINS4_11__wrap_iterIPKcEEEEE9sax_parseINS1_17json_sax_acceptorISG_EEEEbPT_b, symObjAddr: 0x15590, symBinAddr: 0x1DBBC, symSize: 0x22C }
  - { offset: 0xD2201, size: 0x8, addend: 0x0, symName: __ZN8nlohmann16json_abi_v3_12_06detail6parserINS0_10basic_jsonINSt3__13mapENS4_6vectorENS4_12basic_stringIcNS4_11char_traitsIcEENS4_9allocatorIcEEEEbxydSA_NS0_14adl_serializerENS6_IhNSA_IhEEEEvEENS1_22iterator_input_adapterINS4_11__wrap_iterIPKcEEEEED1Ev, symObjAddr: 0x135FC, symBinAddr: 0x1BC3C, symSize: 0x78 }
  - { offset: 0xD3E4B, size: 0x8, addend: 0x0, symName: __ZNK8nlohmann16json_abi_v3_12_010basic_jsonINSt3__13mapENS2_6vectorENS2_12basic_stringIcNS2_11char_traitsIcEENS2_9allocatorIcEEEEbxydS8_NS0_14adl_serializerENS4_IhNS8_IhEEEEvE8get_implIbLi0EEET_NS0_6detail12priority_tagILj0EEE, symObjAddr: 0x1749C, symBinAddr: 0x1FAB4, symSize: 0x124 }
  - { offset: 0xD4497, size: 0x8, addend: 0x0, symName: __ZN7facesdk14LSessionParamsC1ERKN8nlohmann16json_abi_v3_12_010basic_jsonINSt3__13mapENS4_6vectorENS4_12basic_stringIcNS4_11char_traitsIcEENS4_9allocatorIcEEEEbxydSA_NS2_14adl_serializerENS6_IhNSA_IhEEEEvEE, symObjAddr: 0xB9CC, symBinAddr: 0x1453C, symSize: 0x4 }
  - { offset: 0xD44D5, size: 0x8, addend: 0x0, symName: __ZN7facesdk14LSessionParamsC1ERKN8nlohmann16json_abi_v3_12_010basic_jsonINSt3__13mapENS4_6vectorENS4_12basic_stringIcNS4_11char_traitsIcEENS4_9allocatorIcEEEEbxydSA_NS2_14adl_serializerENS6_IhNSA_IhEEEEvEE, symObjAddr: 0xB9CC, symBinAddr: 0x1453C, symSize: 0x4 }
  - { offset: 0xD4960, size: 0x8, addend: 0x0, symName: __ZNSt3__16vectorIN7facesdk12LFrameResultENS_9allocatorIS2_EEED1B8ne180100Ev, symObjAddr: 0xBDB4, symBinAddr: 0x14850, symSize: 0x58 }
  - { offset: 0xD49CF, size: 0x8, addend: 0x0, symName: __ZNSt3__16vectorIN7facesdk12LFrameResultENS_9allocatorIS2_EEED1B8ne180100Ev, symObjAddr: 0xBDB4, symBinAddr: 0x14850, symSize: 0x58 }
  - { offset: 0xD4B70, size: 0x8, addend: 0x0, symName: __ZNSt3__16vectorIN7facesdk5LFaceENS_9allocatorIS2_EEED1B8ne180100Ev, symObjAddr: 0xBECC, symBinAddr: 0x14968, symSize: 0x90 }
  - { offset: 0xD547D, size: 0x8, addend: 0x0, symName: __ZN8nlohmann16json_abi_v3_12_06detail10type_errorD1Ev, symObjAddr: 0xC3D4, symBinAddr: 0x14E70, symSize: 0x30 }
  - { offset: 0xD555A, size: 0x8, addend: 0x0, symName: __ZN8nlohmann16json_abi_v3_12_06detail10type_errorD0Ev, symObjAddr: 0xC62C, symBinAddr: 0x150C8, symSize: 0x34 }
  - { offset: 0xD55DB, size: 0x8, addend: 0x0, symName: __ZNK8nlohmann16json_abi_v3_12_06detail9exception4whatEv, symObjAddr: 0xC660, symBinAddr: 0x150FC, symSize: 0x8 }
  - { offset: 0xD5602, size: 0x8, addend: 0x0, symName: __ZN8nlohmann16json_abi_v3_12_06detail9exceptionD1Ev, symObjAddr: 0xC668, symBinAddr: 0x15104, symSize: 0x30 }
  - { offset: 0xD565E, size: 0x8, addend: 0x0, symName: __ZN8nlohmann16json_abi_v3_12_06detail9exceptionD0Ev, symObjAddr: 0xC698, symBinAddr: 0x15134, symSize: 0x34 }
  - { offset: 0xD5AA8, size: 0x8, addend: 0x0, symName: __ZNK8nlohmann16json_abi_v3_12_06detail9iter_implIKNS0_10basic_jsonINSt3__13mapENS4_6vectorENS4_12basic_stringIcNS4_11char_traitsIcEENS4_9allocatorIcEEEEbxydSA_NS0_14adl_serializerENS6_IhNSA_IhEEEEvEEEdeEv, symObjAddr: 0xCA80, symBinAddr: 0x1551C, symSize: 0x170 }
  - { offset: 0xD5D3A, size: 0x8, addend: 0x0, symName: __ZNSt3__16vectorIjNS_9allocatorIjEEE6insertENS_11__wrap_iterIPKjEEOj, symObjAddr: 0xD078, symBinAddr: 0x15B14, symSize: 0x36C }
  - { offset: 0xD67EF, size: 0x8, addend: 0x0, symName: __ZN8nlohmann16json_abi_v3_12_06detail16invalid_iterator6createIPKNS0_10basic_jsonINSt3__13mapENS5_6vectorENS5_12basic_stringIcNS5_11char_traitsIcEENS5_9allocatorIcEEEEbxydSB_NS0_14adl_serializerENS7_IhNSB_IhEEEEvEELi0EEES2_iRKSD_T_, symObjAddr: 0xCD14, symBinAddr: 0x157B0, symSize: 0x1C4 }
  - { offset: 0xD7673, size: 0x8, addend: 0x0, symName: __ZN8nlohmann16json_abi_v3_12_06detail16invalid_iteratorD1Ev, symObjAddr: 0xCED8, symBinAddr: 0x15974, symSize: 0x30 }
  - { offset: 0xD76ED, size: 0x8, addend: 0x0, symName: __ZN8nlohmann16json_abi_v3_12_06detail16invalid_iteratorD0Ev, symObjAddr: 0xCF08, symBinAddr: 0x159A4, symSize: 0x34 }
  - { offset: 0xD7B00, size: 0x8, addend: 0x0, symName: __ZN8nlohmann16json_abi_v3_12_010basic_jsonINSt3__13mapENS2_6vectorENS2_12basic_stringIcNS2_11char_traitsIcEENS2_9allocatorIcEEEEbxydS8_NS0_14adl_serializerENS4_IhNS8_IhEEEEvE4dataD1Ev, symObjAddr: 0xD484, symBinAddr: 0x15E80, symSize: 0x2C }
  - { offset: 0xD7F10, size: 0x8, addend: 0x0, symName: __ZNSt3__16vectorIN8nlohmann16json_abi_v3_12_010basic_jsonINS_3mapES0_NS_12basic_stringIcNS_11char_traitsIcEENS_9allocatorIcEEEEbxydS8_NS2_14adl_serializerENS0_IhNS8_IhEEEEvEENS8_ISE_EEE7reserveEm, symObjAddr: 0xD900, symBinAddr: 0x162FC, symSize: 0xE0 }
  - { offset: 0xD835D, size: 0x8, addend: 0x0, symName: __ZNSt3__16__treeINS_12__value_typeINS_12basic_stringIcNS_11char_traitsIcEENS_9allocatorIcEEEEN8nlohmann16json_abi_v3_12_010basic_jsonINS_3mapENS_6vectorES7_bxydS5_NS9_14adl_serializerENSC_IhNS5_IhEEEEvEEEENS_19__map_value_compareIS7_SH_NS_4lessIvEELb1EEENS5_ISH_EEE7destroyEPNS_11__tree_nodeISH_PvEE, symObjAddr: 0xDB60, symBinAddr: 0x16548, symSize: 0x78 }
  - { offset: 0xD864B, size: 0x8, addend: 0x0, symName: __ZNSt3__16vectorIN8nlohmann16json_abi_v3_12_010basic_jsonINS_3mapES0_NS_12basic_stringIcNS_11char_traitsIcEENS_9allocatorIcEEEEbxydS8_NS2_14adl_serializerENS0_IhNS8_IhEEEEvEENS8_ISE_EEED2B8ne180100Ev, symObjAddr: 0xDBD8, symBinAddr: 0x165C0, symSize: 0x5C }
  - { offset: 0xD87EF, size: 0x8, addend: 0x0, symName: __ZNSt3__114__split_bufferIN8nlohmann16json_abi_v3_12_010basic_jsonINS_3mapENS_6vectorENS_12basic_stringIcNS_11char_traitsIcEENS_9allocatorIcEEEEbxydS9_NS2_14adl_serializerENS5_IhNS9_IhEEEEvEERNS9_ISF_EEED1Ev, symObjAddr: 0xD9F4, symBinAddr: 0x163DC, symSize: 0x54 }
  - { offset: 0xD8DDF, size: 0x8, addend: 0x0, symName: __ZNSt3__16vectorIN7facesdk6LStageENS_9allocatorIS2_EEEC2B8ne180100ESt16initializer_listIS2_E, symObjAddr: 0xDDE4, symBinAddr: 0x167B8, symSize: 0x118 }
  - { offset: 0xD904C, size: 0x8, addend: 0x0, symName: __ZN7facesdk6LStageC2ERKS0_, symObjAddr: 0xDF64, symBinAddr: 0x16924, symSize: 0x1C0 }
  - { offset: 0xD94F3, size: 0x8, addend: 0x0, symName: __ZN7facesdk6LStageC2ERKS0_, symObjAddr: 0xDF64, symBinAddr: 0x16924, symSize: 0x1C0 }
  - { offset: 0xD94FE, size: 0x8, addend: 0x0, symName: __ZNSt3__128__exception_guard_exceptionsINS_6vectorIN7facesdk6LStageENS_9allocatorIS3_EEE16__destroy_vectorEED1B8ne180100Ev, symObjAddr: 0xDEFC, symBinAddr: 0x168D0, symSize: 0x54 }
  - { offset: 0xD98DD, size: 0x8, addend: 0x0, symName: __ZNSt3__16vectorIN7facesdk12LFrameResultENS_9allocatorIS2_EEE16__init_with_sizeB8ne180100IPS2_S7_EEvT_T0_m, symObjAddr: 0xE124, symBinAddr: 0x16AE4, symSize: 0x104 }
  - { offset: 0xD9FDD, size: 0x8, addend: 0x0, symName: __ZN7facesdk12LFrameResultC2ERKS0_, symObjAddr: 0xE2C0, symBinAddr: 0x16C6C, symSize: 0x158 }
  - { offset: 0xDA481, size: 0x8, addend: 0x0, symName: __ZN7facesdk12LFrameResultC2ERKS0_, symObjAddr: 0xE2C0, symBinAddr: 0x16C6C, symSize: 0x158 }
  - { offset: 0xDA48C, size: 0x8, addend: 0x0, symName: __ZNSt3__128__exception_guard_exceptionsINS_6vectorIN7facesdk12LFrameResultENS_9allocatorIS3_EEE16__destroy_vectorEED1B8ne180100Ev, symObjAddr: 0xE228, symBinAddr: 0x16BE8, symSize: 0x84 }
  - { offset: 0xDA828, size: 0x8, addend: 0x0, symName: __ZNSt3__16vectorIN7facesdk5LFaceENS_9allocatorIS2_EEE16__init_with_sizeB8ne180100IPS2_S7_EEvT_T0_m, symObjAddr: 0xE418, symBinAddr: 0x16DC4, symSize: 0xFC }
  - { offset: 0xDAF10, size: 0x8, addend: 0x0, symName: __ZN7facesdk5LFaceC2ERKS0_, symObjAddr: 0xE5DC, symBinAddr: 0x16F74, symSize: 0x398 }
  - { offset: 0xDB912, size: 0x8, addend: 0x0, symName: __ZN7facesdk5LFaceC2ERKS0_, symObjAddr: 0xE5DC, symBinAddr: 0x16F74, symSize: 0x398 }
  - { offset: 0xDB91D, size: 0x8, addend: 0x0, symName: __ZNSt3__128__exception_guard_exceptionsINS_6vectorIN7facesdk5LFaceENS_9allocatorIS3_EEE16__destroy_vectorEED1B8ne180100Ev, symObjAddr: 0xE514, symBinAddr: 0x16EC0, symSize: 0xB4 }
  - { offset: 0xDBE95, size: 0x8, addend: 0x0, symName: __ZNSt3__16vectorIN7facesdk5LFaceENS_9allocatorIS2_EEE16__init_with_sizeB8ne180100IPS2_S7_EEvT_T0_m.cold.1, symObjAddr: 0x175C0, symBinAddr: 0xF4D120, symSize: 0x5C }
  - { offset: 0xDC47A, size: 0x8, addend: 0x0, symName: __ZNSt3__114__split_bufferIN7facesdk12LFrameResultERNS_9allocatorIS2_EEED1Ev, symObjAddr: 0xEDF8, symBinAddr: 0x17768, symSize: 0x50 }
  - { offset: 0xDC616, size: 0x8, addend: 0x0, symName: __ZNSt12out_of_rangeC1B8ne180100EPKc, symObjAddr: 0xEEAC, symBinAddr: 0x1781C, symSize: 0x24 }
  - { offset: 0xDCA57, size: 0x8, addend: 0x0, symName: __ZNSt3__114__split_bufferIN7facesdk6LStageERNS_9allocatorIS2_EEE17__destruct_at_endB8ne180100EPS2_NS_17integral_constantIbLb0EEE, symObjAddr: 0xF634, symBinAddr: 0x17FA4, symSize: 0x150 }
  - { offset: 0xDD465, size: 0x8, addend: 0x0, symName: __ZNSt3__114__split_bufferIN7facesdk6LStageERNS_9allocatorIS2_EEED1Ev, symObjAddr: 0xF4A8, symBinAddr: 0x17E18, symSize: 0x34 }
  - { offset: 0xDD5E1, size: 0x8, addend: 0x0, symName: __ZNSt3__16__treeINS_12__value_typeINS_12basic_stringIcNS_11char_traitsIcEENS_9allocatorIcEEEEN8nlohmann16json_abi_v3_12_010basic_jsonINS_3mapENS_6vectorES7_bxydS5_NS9_14adl_serializerENSC_IhNS5_IhEEEEvEEEENS_19__map_value_compareIS7_SH_NS_4lessIvEELb1EEENS5_ISH_EEE25__emplace_unique_key_argsIS7_JS7_DnEEENS_4pairINS_15__tree_iteratorISH_PNS_11__tree_nodeISH_PvEElEEbEERKT_DpOT0_, symObjAddr: 0xFAF4, symBinAddr: 0x18464, symSize: 0x178 }
  - { offset: 0xDDC55, size: 0x8, addend: 0x0, symName: __ZNSt3__110unique_ptrINS_11__tree_nodeINS_12__value_typeINS_12basic_stringIcNS_11char_traitsIcEENS_9allocatorIcEEEEN8nlohmann16json_abi_v3_12_010basic_jsonINS_3mapENS_6vectorES8_bxydS6_NSA_14adl_serializerENSD_IhNS6_IhEEEEvEEEEPvEENS_22__tree_node_destructorINS6_ISK_EEEEED1B8ne180100Ev, symObjAddr: 0xFC6C, symBinAddr: 0x185DC, symSize: 0x5C }
  - { offset: 0xDE919, size: 0x8, addend: 0x0, symName: __ZNSt3__16__treeINS_12__value_typeINS_12basic_stringIcNS_11char_traitsIcEENS_9allocatorIcEEEEN8nlohmann16json_abi_v3_12_010basic_jsonINS_3mapENS_6vectorES7_bxydS5_NS9_14adl_serializerENSC_IhNS5_IhEEEEvEEEENS_19__map_value_compareIS7_SH_NS_4lessIvEELb1EEENS5_ISH_EEE30__emplace_hint_unique_key_argsIS7_JRKNS_4pairIKS7_SG_EEEEENSP_INS_15__tree_iteratorISH_PNS_11__tree_nodeISH_PvEElEEbEENS_21__tree_const_iteratorISH_SY_lEERKT_DpOT0_, symObjAddr: 0x10104, symBinAddr: 0x18A74, symSize: 0x128 }
  - { offset: 0xDEE6B, size: 0x8, addend: 0x0, symName: __ZNSt3__16vectorIN8nlohmann16json_abi_v3_12_010basic_jsonINS_3mapES0_NS_12basic_stringIcNS_11char_traitsIcEENS_9allocatorIcEEEEbxydS8_NS2_14adl_serializerENS0_IhNS8_IhEEEEvEENS8_ISE_EEE16__init_with_sizeB8ne180100IPSE_SI_EEvT_T0_m, symObjAddr: 0x10624, symBinAddr: 0x18F94, symSize: 0x100 }
  - { offset: 0xDF4B0, size: 0x8, addend: 0x0, symName: __ZNSt3__16__treeINS_12__value_typeINS_12basic_stringIcNS_11char_traitsIcEENS_9allocatorIcEEEEN8nlohmann16json_abi_v3_12_010basic_jsonINS_3mapENS_6vectorES7_bxydS5_NS9_14adl_serializerENSC_IhNS5_IhEEEEvEEEENS_19__map_value_compareIS7_SH_NS_4lessIvEELb1EEENS5_ISH_EEE12__find_equalIS7_EERPNS_16__tree_node_baseIPvEENS_21__tree_const_iteratorISH_PNS_11__tree_nodeISH_SQ_EElEERPNS_15__tree_end_nodeISS_EEST_RKT_, symObjAddr: 0x1022C, symBinAddr: 0x18B9C, symSize: 0x3F8 }
  - { offset: 0xE027C, size: 0x8, addend: 0x0, symName: __ZNSt3__128__exception_guard_exceptionsINS_6vectorIN8nlohmann16json_abi_v3_12_010basic_jsonINS_3mapES1_NS_12basic_stringIcNS_11char_traitsIcEENS_9allocatorIcEEEEbxydS9_NS3_14adl_serializerENS1_IhNS9_IhEEEEvEENS9_ISF_EEE16__destroy_vectorEED1B8ne180100Ev, symObjAddr: 0x10724, symBinAddr: 0x19094, symSize: 0x80 }
  - { offset: 0xE0449, size: 0x8, addend: 0x0, symName: __ZNSt3__128__exception_guard_exceptionsINS_29_AllocatorDestroyRangeReverseINS_9allocatorIN8nlohmann16json_abi_v3_12_010basic_jsonINS_3mapENS_6vectorENS_12basic_stringIcNS_11char_traitsIcEENS2_IcEEEEbxydS2_NS4_14adl_serializerENS7_IhNS2_IhEEEEvEEEEPSG_EEED1B8ne180100Ev, symObjAddr: 0x107A4, symBinAddr: 0x19114, symSize: 0x58 }
  - { offset: 0xE07F7, size: 0x8, addend: 0x0, symName: __ZN8nlohmann16json_abi_v3_12_06detail13binary_writerINS0_10basic_jsonINSt3__13mapENS4_6vectorENS4_12basic_stringIcNS4_11char_traitsIcEENS4_9allocatorIcEEEEbxydSA_NS0_14adl_serializerENS6_IhNSA_IhEEEEvEEhE10write_bsonERKSG_, symObjAddr: 0x10AC8, symBinAddr: 0x19424, symSize: 0xDC }
  - { offset: 0xE09CF, size: 0x8, addend: 0x0, symName: __ZN8nlohmann16json_abi_v3_12_06detail13binary_writerINS0_10basic_jsonINSt3__13mapENS4_6vectorENS4_12basic_stringIcNS4_11char_traitsIcEENS4_9allocatorIcEEEEbxydSA_NS0_14adl_serializerENS6_IhNSA_IhEEEEvEEhED1Ev, symObjAddr: 0x10BA4, symBinAddr: 0x19500, symSize: 0x68 }
  - { offset: 0xE0B0C, size: 0x8, addend: 0x0, symName: __ZN8nlohmann16json_abi_v3_12_06detail13binary_writerINS0_10basic_jsonINSt3__13mapENS4_6vectorENS4_12basic_stringIcNS4_11char_traitsIcEENS4_9allocatorIcEEEEbxydSA_NS0_14adl_serializerENS6_IhNSA_IhEEEEvEEhE17write_bson_objectERKNS5_ISC_SG_NS4_4lessIvEENSA_INS4_4pairIKSC_SG_EEEEEE, symObjAddr: 0x10C74, symBinAddr: 0x19568, symSize: 0x170 }
  - { offset: 0xE1095, size: 0x8, addend: 0x0, symName: __ZN8nlohmann16json_abi_v3_12_06detail13binary_writerINS0_10basic_jsonINSt3__13mapENS4_6vectorENS4_12basic_stringIcNS4_11char_traitsIcEENS4_9allocatorIcEEEEbxydSA_NS0_14adl_serializerENS6_IhNSA_IhEEEEvEEhE22calc_bson_element_sizeERKSC_RKSG_, symObjAddr: 0x112B4, symBinAddr: 0x19BA8, symSize: 0x1D4 }
  - { offset: 0xE16A2, size: 0x8, addend: 0x0, symName: __ZN8nlohmann16json_abi_v3_12_06detail13binary_writerINS0_10basic_jsonINSt3__13mapENS4_6vectorENS4_12basic_stringIcNS4_11char_traitsIcEENS4_9allocatorIcEEEEbxydSA_NS0_14adl_serializerENS6_IhNSA_IhEEEEvEEhE18write_bson_elementERKSC_RKSG_, symObjAddr: 0x10E68, symBinAddr: 0x1975C, symSize: 0x44C }
  - { offset: 0xE21CD, size: 0x8, addend: 0x0, symName: __ZN8nlohmann16json_abi_v3_12_06detail13binary_writerINS0_10basic_jsonINSt3__13mapENS4_6vectorENS4_12basic_stringIcNS4_11char_traitsIcEENS4_9allocatorIcEEEEbxydSA_NS0_14adl_serializerENS6_IhNSA_IhEEEEvEEhE16write_bson_arrayERKSC_RKNS6_ISG_NSA_ISG_EEEE, symObjAddr: 0x118B0, symBinAddr: 0x1A1A4, symSize: 0x1D0 }
  - { offset: 0xE2894, size: 0x8, addend: 0x0, symName: __ZN8nlohmann16json_abi_v3_12_06detail13binary_writerINS0_10basic_jsonINSt3__13mapENS4_6vectorENS4_12basic_stringIcNS4_11char_traitsIcEENS4_9allocatorIcEEEEbxydSA_NS0_14adl_serializerENS6_IhNSA_IhEEEEvEEhE18write_bson_integerERKSC_x, symObjAddr: 0x11B94, symBinAddr: 0x1A488, symSize: 0x17C }
  - { offset: 0xE2CBC, size: 0x8, addend: 0x0, symName: __ZN8nlohmann16json_abi_v3_12_06detail13binary_writerINS0_10basic_jsonINSt3__13mapENS4_6vectorENS4_12basic_stringIcNS4_11char_traitsIcEENS4_9allocatorIcEEEEbxydSA_NS0_14adl_serializerENS6_IhNSA_IhEEEEvEEhE19write_bson_unsignedERKSC_RKSG_, symObjAddr: 0x11D10, symBinAddr: 0x1A604, symSize: 0x20C }
  - { offset: 0xE3321, size: 0x8, addend: 0x0, symName: __ZN8nlohmann16json_abi_v3_12_06detail13binary_writerINS0_10basic_jsonINSt3__13mapENS4_6vectorENS4_12basic_stringIcNS4_11char_traitsIcEENS4_9allocatorIcEEEEbxydSA_NS0_14adl_serializerENS6_IhNSA_IhEEEEvEEhE17write_bson_binaryERKSC_RKNS0_27byte_container_with_subtypeISF_EE, symObjAddr: 0x11A80, symBinAddr: 0x1A374, symSize: 0x114 }
  - { offset: 0xE37CC, size: 0x8, addend: 0x0, symName: __ZN8nlohmann16json_abi_v3_12_06detail13binary_writerINS0_10basic_jsonINSt3__13mapENS4_6vectorENS4_12basic_stringIcNS4_11char_traitsIcEENS4_9allocatorIcEEEEbxydSA_NS0_14adl_serializerENS6_IhNSA_IhEEEEvEEhE27calc_bson_entry_header_sizeERKSC_RKSG_, symObjAddr: 0x11488, symBinAddr: 0x19D7C, symSize: 0x12C }
  - { offset: 0xE3B6B, size: 0x8, addend: 0x0, symName: __ZN8nlohmann16json_abi_v3_12_06detail12out_of_rangeD1Ev, symObjAddr: 0x1184C, symBinAddr: 0x1A140, symSize: 0x30 }
  - { offset: 0xE3BE5, size: 0x8, addend: 0x0, symName: __ZN8nlohmann16json_abi_v3_12_06detail12out_of_rangeD0Ev, symObjAddr: 0x1187C, symBinAddr: 0x1A170, symSize: 0x34 }
  - { offset: 0xE3D77, size: 0x8, addend: 0x0, symName: __ZNSt3__120__shared_ptr_emplaceIN8nlohmann16json_abi_v3_12_06detail21output_vector_adapterIhNS_9allocatorIhEEEENS5_IS7_EEED1Ev, symObjAddr: 0x11F1C, symBinAddr: 0x1A810, symSize: 0x10 }
  - { offset: 0xE3D99, size: 0x8, addend: 0x0, symName: __ZNSt3__120__shared_ptr_emplaceIN8nlohmann16json_abi_v3_12_06detail21output_vector_adapterIhNS_9allocatorIhEEEENS5_IS7_EEED1Ev, symObjAddr: 0x11F1C, symBinAddr: 0x1A810, symSize: 0x10 }
  - { offset: 0xE3DCF, size: 0x8, addend: 0x0, symName: __ZNSt3__120__shared_ptr_emplaceIN8nlohmann16json_abi_v3_12_06detail21output_vector_adapterIhNS_9allocatorIhEEEENS5_IS7_EEED0Ev, symObjAddr: 0x11F2C, symBinAddr: 0x1A820, symSize: 0x20 }
  - { offset: 0xE3EBB, size: 0x8, addend: 0x0, symName: __ZNSt3__120__shared_ptr_emplaceIN8nlohmann16json_abi_v3_12_06detail21output_vector_adapterIhNS_9allocatorIhEEEENS5_IS7_EEE16__on_zero_sharedEv, symObjAddr: 0x11F4C, symBinAddr: 0x1A840, symSize: 0xC }
  - { offset: 0xE3EE4, size: 0x8, addend: 0x0, symName: __ZNSt3__120__shared_ptr_emplaceIN8nlohmann16json_abi_v3_12_06detail21output_vector_adapterIhNS_9allocatorIhEEEENS5_IS7_EEE16__on_zero_sharedEv, symObjAddr: 0x11F4C, symBinAddr: 0x1A840, symSize: 0xC }
  - { offset: 0xE3F02, size: 0x8, addend: 0x0, symName: __ZNSt3__120__shared_ptr_emplaceIN8nlohmann16json_abi_v3_12_06detail21output_vector_adapterIhNS_9allocatorIhEEEENS5_IS7_EEE16__on_zero_sharedEv, symObjAddr: 0x11F4C, symBinAddr: 0x1A840, symSize: 0xC }
  - { offset: 0xE3F20, size: 0x8, addend: 0x0, symName: __ZNSt3__120__shared_ptr_emplaceIN8nlohmann16json_abi_v3_12_06detail21output_vector_adapterIhNS_9allocatorIhEEEENS5_IS7_EEE16__on_zero_sharedEv, symObjAddr: 0x11F4C, symBinAddr: 0x1A840, symSize: 0xC }
  - { offset: 0xE3FA3, size: 0x8, addend: 0x0, symName: __ZNSt3__120__shared_ptr_emplaceIN8nlohmann16json_abi_v3_12_06detail21output_vector_adapterIhNS_9allocatorIhEEEENS5_IS7_EEE21__on_zero_shared_weakEv, symObjAddr: 0x11F58, symBinAddr: 0x1A84C, symSize: 0x4 }
  - { offset: 0xE3FD6, size: 0x8, addend: 0x0, symName: __ZNSt3__120__shared_ptr_emplaceIN8nlohmann16json_abi_v3_12_06detail21output_vector_adapterIhNS_9allocatorIhEEEENS5_IS7_EEE21__on_zero_shared_weakEv, symObjAddr: 0x11F58, symBinAddr: 0x1A84C, symSize: 0x4 }
  - { offset: 0xE3FF8, size: 0x8, addend: 0x0, symName: __ZNSt3__120__shared_ptr_emplaceIN8nlohmann16json_abi_v3_12_06detail21output_vector_adapterIhNS_9allocatorIhEEEENS5_IS7_EEE21__on_zero_shared_weakEv, symObjAddr: 0x11F58, symBinAddr: 0x1A84C, symSize: 0x4 }
  - { offset: 0xE401A, size: 0x8, addend: 0x0, symName: __ZNSt3__120__shared_ptr_emplaceIN8nlohmann16json_abi_v3_12_06detail21output_vector_adapterIhNS_9allocatorIhEEEENS5_IS7_EEE21__on_zero_shared_weakEv, symObjAddr: 0x11F58, symBinAddr: 0x1A84C, symSize: 0x4 }
  - { offset: 0xE4046, size: 0x8, addend: 0x0, symName: __ZNSt3__120__shared_ptr_emplaceIN8nlohmann16json_abi_v3_12_06detail21output_vector_adapterIhNS_9allocatorIhEEEENS5_IS7_EEE21__on_zero_shared_weakEv, symObjAddr: 0x11F58, symBinAddr: 0x1A84C, symSize: 0x4 }
  - { offset: 0xE406D, size: 0x8, addend: 0x0, symName: __ZNSt3__120__shared_ptr_emplaceIN8nlohmann16json_abi_v3_12_06detail21output_vector_adapterIhNS_9allocatorIhEEEENS5_IS7_EEE21__on_zero_shared_weakEv, symObjAddr: 0x11F58, symBinAddr: 0x1A84C, symSize: 0x4 }
  - { offset: 0xE435A, size: 0x8, addend: 0x0, symName: __ZN8nlohmann16json_abi_v3_12_06detail21output_vector_adapterIhNSt3__19allocatorIhEEE15write_characterEh, symObjAddr: 0x11F5C, symBinAddr: 0x1A850, symSize: 0x1BC }
  - { offset: 0xE473F, size: 0x8, addend: 0x0, symName: __ZN8nlohmann16json_abi_v3_12_06detail21output_vector_adapterIhNSt3__19allocatorIhEEE16write_charactersEPKhm, symObjAddr: 0x12118, symBinAddr: 0x1AA0C, symSize: 0x18 }
  - { offset: 0xE47B4, size: 0x8, addend: 0x0, symName: __ZN8nlohmann16json_abi_v3_12_06detail21output_vector_adapterIhNSt3__19allocatorIhEEE16write_charactersEPKhm, symObjAddr: 0x12118, symBinAddr: 0x1AA0C, symSize: 0x18 }
  - { offset: 0xE4FC3, size: 0x8, addend: 0x0, symName: __ZN8nlohmann16json_abi_v3_12_06detail6concatINSt3__112basic_stringIcNS3_11char_traitsIcEENS3_9allocatorIcEEEEJRA22_KcPSA_EEET_DpOT0_, symObjAddr: 0x123EC, symBinAddr: 0x1AA2C, symSize: 0x84 }
  - { offset: 0xE4FE6, size: 0x8, addend: 0x0, symName: __ZN8nlohmann16json_abi_v3_12_06detail21output_vector_adapterIhNSt3__19allocatorIhEEED1Ev, symObjAddr: 0x12130, symBinAddr: 0x1AA24, symSize: 0x4 }
  - { offset: 0xE5011, size: 0x8, addend: 0x0, symName: __ZN8nlohmann16json_abi_v3_12_06detail21output_vector_adapterIhNSt3__19allocatorIhEEED0Ev, symObjAddr: 0x12134, symBinAddr: 0x1AA28, symSize: 0x4 }
  - { offset: 0xE56CE, size: 0x8, addend: 0x0, symName: __ZNK8nlohmann16json_abi_v3_12_010basic_jsonINSt3__13mapENS2_6vectorENS2_12basic_stringIcNS2_11char_traitsIcEENS2_9allocatorIcEEEEbxydS8_NS0_14adl_serializerENS4_IhNS8_IhEEEEvEixEm, symObjAddr: 0x12D88, symBinAddr: 0x1B3C8, symSize: 0xE0 }
  - { offset: 0xE58C1, size: 0x8, addend: 0x0, symName: __ZNSt3__16__treeINS_12__value_typeINS_12basic_stringIcNS_11char_traitsIcEENS_9allocatorIcEEEEN8nlohmann16json_abi_v3_12_010basic_jsonINS_3mapENS_6vectorES7_bxydS5_NS9_14adl_serializerENSC_IhNS5_IhEEEEvEEEENS_19__map_value_compareIS7_SH_NS_4lessIvEELb1EEENS5_ISH_EEE25__emplace_unique_key_argsIS7_JS7_SG_EEENS_4pairINS_15__tree_iteratorISH_PNS_11__tree_nodeISH_PvEElEEbEERKT_DpOT0_, symObjAddr: 0x12EEC, symBinAddr: 0x1B52C, symSize: 0x18C }
  - { offset: 0xE5E82, size: 0x8, addend: 0x0, symName: __ZNSt3__16vectorIN8nlohmann16json_abi_v3_12_010basic_jsonINS_3mapES0_NS_12basic_stringIcNS_11char_traitsIcEENS_9allocatorIcEEEEbxydS8_NS2_14adl_serializerENS0_IhNS8_IhEEEEvEENS8_ISE_EEE16__init_with_sizeB8ne180100IPKNS2_6detail8json_refISE_EESM_EEvT_T0_m, symObjAddr: 0x13078, symBinAddr: 0x1B6B8, symSize: 0x120 }
  - { offset: 0xE63D7, size: 0x8, addend: 0x0, symName: __ZN8nlohmann16json_abi_v3_12_06detail10type_error6createIDnLi0EEES2_iRKNSt3__112basic_stringIcNS4_11char_traitsIcEENS4_9allocatorIcEEEET_, symObjAddr: 0x12BBC, symBinAddr: 0x1B1FC, symSize: 0x1CC }
  - { offset: 0xE77CA, size: 0x8, addend: 0x0, symName: __ZN8nlohmann16json_abi_v3_12_06detail5lexerINS0_10basic_jsonINSt3__13mapENS4_6vectorENS4_12basic_stringIcNS4_11char_traitsIcEENS4_9allocatorIcEEEEbxydSA_NS0_14adl_serializerENS6_IhNSA_IhEEEEvEENS1_22iterator_input_adapterINS4_11__wrap_iterIPKcEEEEE4scanEv, symObjAddr: 0x137FC, symBinAddr: 0x1BE3C, symSize: 0x28C }
  - { offset: 0xE7ADB, size: 0x8, addend: 0x0, symName: __ZN8nlohmann16json_abi_v3_12_06detail5lexerINS0_10basic_jsonINSt3__13mapENS4_6vectorENS4_12basic_stringIcNS4_11char_traitsIcEENS4_9allocatorIcEEEEbxydSA_NS0_14adl_serializerENS6_IhNSA_IhEEEEvEENS1_22iterator_input_adapterINS4_11__wrap_iterIPKcEEEEED1Ev, symObjAddr: 0x137B0, symBinAddr: 0x1BDF0, symSize: 0x4C }
  - { offset: 0xE7DF7, size: 0x8, addend: 0x0, symName: __ZN8nlohmann16json_abi_v3_12_06detail5lexerINS0_10basic_jsonINSt3__13mapENS4_6vectorENS4_12basic_stringIcNS4_11char_traitsIcEENS4_9allocatorIcEEEEbxydSA_NS0_14adl_serializerENS6_IhNSA_IhEEEEvEENS1_22iterator_input_adapterINS4_11__wrap_iterIPKcEEEEE3getEv, symObjAddr: 0x15180, symBinAddr: 0x1D7C0, symSize: 0x250 }
  - { offset: 0xE82A8, size: 0x8, addend: 0x0, symName: __ZN8nlohmann16json_abi_v3_12_06detail5lexerINS0_10basic_jsonINSt3__13mapENS4_6vectorENS4_12basic_stringIcNS4_11char_traitsIcEENS4_9allocatorIcEEEEbxydSA_NS0_14adl_serializerENS6_IhNSA_IhEEEEvEENS1_22iterator_input_adapterINS4_11__wrap_iterIPKcEEEEE15skip_whitespaceEv, symObjAddr: 0x13A88, symBinAddr: 0x1C0C8, symSize: 0x26C }
  - { offset: 0xE87A1, size: 0x8, addend: 0x0, symName: __ZN8nlohmann16json_abi_v3_12_06detail5lexerINS0_10basic_jsonINSt3__13mapENS4_6vectorENS4_12basic_stringIcNS4_11char_traitsIcEENS4_9allocatorIcEEEEbxydSA_NS0_14adl_serializerENS6_IhNSA_IhEEEEvEENS1_22iterator_input_adapterINS4_11__wrap_iterIPKcEEEEE12scan_commentEv, symObjAddr: 0x13CF4, symBinAddr: 0x1C334, symSize: 0x120 }
  - { offset: 0xE87B3, size: 0x8, addend: 0x0, symName: __ZN8nlohmann16json_abi_v3_12_06detail5lexerINS0_10basic_jsonINSt3__13mapENS4_6vectorENS4_12basic_stringIcNS4_11char_traitsIcEENS4_9allocatorIcEEEEbxydSA_NS0_14adl_serializerENS6_IhNSA_IhEEEEvEENS1_22iterator_input_adapterINS4_11__wrap_iterIPKcEEEEE12scan_commentEv, symObjAddr: 0x13CF4, symBinAddr: 0x1C334, symSize: 0x120 }
  - { offset: 0xE88B3, size: 0x8, addend: 0x0, symName: __ZN8nlohmann16json_abi_v3_12_06detail5lexerINS0_10basic_jsonINSt3__13mapENS4_6vectorENS4_12basic_stringIcNS4_11char_traitsIcEENS4_9allocatorIcEEEEbxydSA_NS0_14adl_serializerENS6_IhNSA_IhEEEEvEENS1_22iterator_input_adapterINS4_11__wrap_iterIPKcEEEEE11scan_numberEv, symObjAddr: 0x14B54, symBinAddr: 0x1D194, symSize: 0x62C }
  - { offset: 0xE9707, size: 0x8, addend: 0x0, symName: __ZN8nlohmann16json_abi_v3_12_06detail5lexerINS0_10basic_jsonINSt3__13mapENS4_6vectorENS4_12basic_stringIcNS4_11char_traitsIcEENS4_9allocatorIcEEEEbxydSA_NS0_14adl_serializerENS6_IhNSA_IhEEEEvEENS1_22iterator_input_adapterINS4_11__wrap_iterIPKcEEEEE11scan_stringEv, symObjAddr: 0x13E14, symBinAddr: 0x1C454, symSize: 0xD40 }
  - { offset: 0xEB17F, size: 0x8, addend: 0x0, symName: __ZN8nlohmann16json_abi_v3_12_06detail5lexerINS0_10basic_jsonINSt3__13mapENS4_6vectorENS4_12basic_stringIcNS4_11char_traitsIcEENS4_9allocatorIcEEEEbxydSA_NS0_14adl_serializerENS6_IhNSA_IhEEEEvEENS1_22iterator_input_adapterINS4_11__wrap_iterIPKcEEEEE13get_codepointEv, symObjAddr: 0x153E4, symBinAddr: 0x1DA10, symSize: 0x1AC }
  - { offset: 0xEB258, size: 0x8, addend: 0x0, symName: __ZN8nlohmann16json_abi_v3_12_06detail5lexerINS0_10basic_jsonINSt3__13mapENS4_6vectorENS4_12basic_stringIcNS4_11char_traitsIcEENS4_9allocatorIcEEEEbxydSA_NS0_14adl_serializerENS6_IhNSA_IhEEEEvEENS1_22iterator_input_adapterINS4_11__wrap_iterIPKcEEEEE13get_codepointEv, symObjAddr: 0x153E4, symBinAddr: 0x1DA10, symSize: 0x1AC }
  - { offset: 0xEB595, size: 0x8, addend: 0x0, symName: __ZN8nlohmann16json_abi_v3_12_06detail6parserINS0_10basic_jsonINSt3__13mapENS4_6vectorENS4_12basic_stringIcNS4_11char_traitsIcEENS4_9allocatorIcEEEEbxydSA_NS0_14adl_serializerENS6_IhNSA_IhEEEEvEENS1_22iterator_input_adapterINS4_11__wrap_iterIPKcEEEEE18sax_parse_internalINS1_17json_sax_acceptorISG_EEEEbPT_, symObjAddr: 0x157BC, symBinAddr: 0x1DDE8, symSize: 0xADC }
  - { offset: 0xED23B, size: 0x8, addend: 0x0, symName: __ZN8nlohmann16json_abi_v3_12_06detail6parserINS0_10basic_jsonINSt3__13mapENS4_6vectorENS4_12basic_stringIcNS4_11char_traitsIcEENS4_9allocatorIcEEEEbxydSA_NS0_14adl_serializerENS6_IhNSA_IhEEEEvEENS1_22iterator_input_adapterINS4_11__wrap_iterIPKcEEEEE17exception_messageENS1_10lexer_baseISG_E10token_typeERKSC_, symObjAddr: 0x165C4, symBinAddr: 0x1EBF0, symSize: 0x3CC }
  - { offset: 0xEE549, size: 0x8, addend: 0x0, symName: __ZN8nlohmann16json_abi_v3_12_06detail11parse_error6createIDnLi0EEES2_iRKNS1_10position_tERKNSt3__112basic_stringIcNS7_11char_traitsIcEENS7_9allocatorIcEEEET_, symObjAddr: 0x1637C, symBinAddr: 0x1E9A8, symSize: 0x248 }
  - { offset: 0xEF7E8, size: 0x8, addend: 0x0, symName: __ZNSt3__16vectorIbNS_9allocatorIbEEE7reserveEm, symObjAddr: 0x16C44, symBinAddr: 0x1F270, symSize: 0x100 }
  - { offset: 0xEFBD2, size: 0x8, addend: 0x0, symName: __ZNK8nlohmann16json_abi_v3_12_06detail5lexerINS0_10basic_jsonINSt3__13mapENS4_6vectorENS4_12basic_stringIcNS4_11char_traitsIcEENS4_9allocatorIcEEEEbxydSA_NS0_14adl_serializerENS6_IhNSA_IhEEEEvEENS1_22iterator_input_adapterINS4_11__wrap_iterIPKcEEEEE16get_token_stringEv, symObjAddr: 0x16298, symBinAddr: 0x1E8C4, symSize: 0xE4 }
  - { offset: 0xEFE5B, size: 0x8, addend: 0x0, symName: __ZN8nlohmann16json_abi_v3_12_06detail12out_of_range6createIDnLi0EEES2_iRKNSt3__112basic_stringIcNS4_11char_traitsIcEENS4_9allocatorIcEEEET_, symObjAddr: 0x169C0, symBinAddr: 0x1EFEC, symSize: 0x1D0 }
  - { offset: 0xF0C90, size: 0x8, addend: 0x0, symName: __ZN8nlohmann16json_abi_v3_12_06detail6concatINSt3__112basic_stringIcNS3_11char_traitsIcEENS3_9allocatorIcEEEEJS9_RA12_KcS9_RA3_SA_S9_RKS9_EEET_DpOT0_, symObjAddr: 0x16D58, symBinAddr: 0x1F370, symSize: 0x190 }
  - { offset: 0xF0D11, size: 0x8, addend: 0x0, symName: __ZN8nlohmann16json_abi_v3_12_06detail11parse_error15position_stringERKNS1_10position_tE, symObjAddr: 0x16EE8, symBinAddr: 0x1F500, symSize: 0xE8 }
  - { offset: 0xF1202, size: 0x8, addend: 0x0, symName: __ZN8nlohmann16json_abi_v3_12_06detail11parse_errorD1Ev, symObjAddr: 0x16990, symBinAddr: 0x1EFBC, symSize: 0x30 }
  - { offset: 0xF1470, size: 0x8, addend: 0x0, symName: __ZN8nlohmann16json_abi_v3_12_06detail11parse_errorD0Ev, symObjAddr: 0x170DC, symBinAddr: 0x1F6F4, symSize: 0x34 }
  - { offset: 0xF3417, size: 0x8, addend: 0x0, symName: __ZN7facesdk6Logger9setStatusEb, symObjAddr: 0x0, symBinAddr: 0x1FBD8, symSize: 0x8 }
  - { offset: 0xFBDA6, size: 0x8, addend: 0x0, symName: __ZN7facesdk6Logger9setStatusEb, symObjAddr: 0x0, symBinAddr: 0x1FBD8, symSize: 0x8 }
  - { offset: 0x103F5B, size: 0x8, addend: 0x0, symName: __ZNSt3__125__throw_bad_function_callB8ne180100Ev, symObjAddr: 0x11E4, symBinAddr: 0x208F8, symSize: 0x34 }
  - { offset: 0x1066C0, size: 0x8, addend: 0x0, symName: __ZN7facesdk12MessageQueueC1Em, symObjAddr: 0xA4, symBinAddr: 0x1FBE0, symSize: 0xA4 }
  - { offset: 0x106A37, size: 0x8, addend: 0x0, symName: __ZN7facesdk12MessageQueue4pushENS_11eFL_MessageE, symObjAddr: 0x148, symBinAddr: 0x1FC84, symSize: 0xCC }
  - { offset: 0x106D68, size: 0x8, addend: 0x0, symName: __ZNSt3__15dequeIN7facesdk11eFL_MessageENS_9allocatorIS2_EEE19__add_back_capacityEv, symObjAddr: 0x8DC, symBinAddr: 0x20018, symSize: 0x5BC }
  - { offset: 0x107FFE, size: 0x8, addend: 0x0, symName: __ZN7facesdk12MessageQueue5clearEv, symObjAddr: 0x228, symBinAddr: 0x1FD50, symSize: 0x74 }
  - { offset: 0x10852D, size: 0x8, addend: 0x0, symName: __ZNK7facesdk12MessageQueue17prevailingMessageEv, symObjAddr: 0x4D0, symBinAddr: 0x1FDC4, symSize: 0x17C }
  - { offset: 0x108DCB, size: 0x8, addend: 0x0, symName: __ZNSt3__112__hash_tableINS_17__hash_value_typeIN7facesdk11eFL_MessageEmEENS_22__unordered_map_hasherIS3_S4_NS_4hashIS3_EENS_8equal_toIS3_EELb1EEENS_21__unordered_map_equalIS3_S4_S9_S7_Lb1EEENS_9allocatorIS4_EEE25__emplace_unique_key_argsIS3_JRKNS_21piecewise_construct_tENS_5tupleIJRKS3_EEENSK_IJEEEEEENS_4pairINS_15__hash_iteratorIPNS_11__hash_nodeIS4_PvEEEEbEERKT_DpOT0_, symObjAddr: 0x1230, symBinAddr: 0x20944, symSize: 0x328 }
  - { offset: 0x10951F, size: 0x8, addend: 0x0, symName: __ZNSt3__113unordered_mapIN7facesdk11eFL_MessageEmNS_4hashIS2_EENS_8equal_toIS2_EENS_9allocatorINS_4pairIKS2_mEEEEED1B8ne180100Ev, symObjAddr: 0x740, symBinAddr: 0x1FF40, symSize: 0x48 }
  - { offset: 0x1097F4, size: 0x8, addend: 0x0, symName: __ZNK7facesdk12MessageQueue15messageFractionENS_11eFL_MessageE, symObjAddr: 0x788, symBinAddr: 0x1FF88, symSize: 0x90 }
  - { offset: 0x109846, size: 0x8, addend: 0x0, symName: __ZNK7facesdk12MessageQueue15messageFractionENS_11eFL_MessageE, symObjAddr: 0x788, symBinAddr: 0x1FF88, symSize: 0x90 }
  - { offset: 0x109863, size: 0x8, addend: 0x0, symName: __ZNK7facesdk12MessageQueue15messageFractionENS_11eFL_MessageE, symObjAddr: 0x788, symBinAddr: 0x1FF88, symSize: 0x90 }
  - { offset: 0x10988A, size: 0x8, addend: 0x0, symName: __ZNK7facesdk12MessageQueue15messageFractionENS_11eFL_MessageE, symObjAddr: 0x788, symBinAddr: 0x1FF88, symSize: 0x90 }
  - { offset: 0x10A01C, size: 0x8, addend: 0x0, symName: __ZNSt3__114__split_bufferIPN7facesdk11eFL_MessageENS_9allocatorIS3_EEE9push_backEOS3_, symObjAddr: 0xE98, symBinAddr: 0x205D4, symSize: 0x18C }
  - { offset: 0x10A4B8, size: 0x8, addend: 0x0, symName: __ZNSt3__114__split_bufferIPN7facesdk11eFL_MessageENS_9allocatorIS3_EEE10push_frontEOS3_, symObjAddr: 0x1024, symBinAddr: 0x20760, symSize: 0x198 }
  - { offset: 0x10A4C3, size: 0x8, addend: 0x0, symName: __ZNSt3__114__split_bufferIPN7facesdk11eFL_MessageENS_9allocatorIS3_EEE10push_frontEOS3_, symObjAddr: 0x1024, symBinAddr: 0x20760, symSize: 0x198 }
  - { offset: 0x10A9AA, size: 0x8, addend: 0x0, symName: __ZNSt3__117bad_function_callD1Ev, symObjAddr: 0x1218, symBinAddr: 0x2092C, symSize: 0x4 }
  - { offset: 0x10A9CC, size: 0x8, addend: 0x0, symName: __ZNSt3__117bad_function_callD1Ev, symObjAddr: 0x1218, symBinAddr: 0x2092C, symSize: 0x4 }
  - { offset: 0x10AA00, size: 0x8, addend: 0x0, symName: __ZNSt3__117bad_function_callD0Ev, symObjAddr: 0x121C, symBinAddr: 0x20930, symSize: 0x14 }
  - { offset: 0x10AF86, size: 0x8, addend: 0x0, symName: __ZNSt3__112__hash_tableINS_17__hash_value_typeIN7facesdk11eFL_MessageEmEENS_22__unordered_map_hasherIS3_S4_NS_4hashIS3_EENS_8equal_toIS3_EELb1EEENS_21__unordered_map_equalIS3_S4_S9_S7_Lb1EEENS_9allocatorIS4_EEE11__do_rehashILb1EEEvm, symObjAddr: 0x1558, symBinAddr: 0x20C6C, symSize: 0x1AC }
  - { offset: 0x10D358, size: 0x8, addend: 0x0, symName: '+[RGLLivenessCore process:inputData:inputJSON:outputData:outputJSON:]', symObjAddr: 0x0, symBinAddr: 0x20E18, symSize: 0xF4 }
  - { offset: 0x10E00E, size: 0x8, addend: 0x0, symName: '+[RGLLivenessCore process:inputData:inputJSON:outputData:outputJSON:]', symObjAddr: 0x0, symBinAddr: 0x20E18, symSize: 0xF4 }
  - { offset: 0x10E233, size: 0x8, addend: 0x0, symName: '+[RGLLivenessCore process:inputBufferParams:inputJSON:outputData:outputJSON:]', symObjAddr: 0xF4, symBinAddr: 0x20F0C, symSize: 0x418 }
  - { offset: 0x10E7EF, size: 0x8, addend: 0x0, symName: '+[RGLLivenessCore addPackage:inputBufferParams:inputJSON:outputData:outputJSON:]', symObjAddr: 0x50C, symBinAddr: 0x21324, symSize: 0x214 }
  - { offset: 0x10E921, size: 0x8, addend: 0x0, symName: '+[RGLLivenessCore process:]', symObjAddr: 0x720, symBinAddr: 0x21538, symSize: 0x2C8 }
  - { offset: 0x11BE37, size: 0x8, addend: 0x0, symName: __ZN7facesdk8ResourceC1ERKNSt3__112basic_stringIcNS1_11char_traitsIcEENS1_9allocatorIcEEEE, symObjAddr: 0x6C, symBinAddr: 0x21800, symSize: 0x6C }
  - { offset: 0x11C151, size: 0x8, addend: 0x0, symName: __ZNK7facesdk8Resource7getFileERKNSt3__112basic_stringIcNS1_11char_traitsIcEENS1_9allocatorIcEEEE, symObjAddr: 0x190, symBinAddr: 0x2186C, symSize: 0xFC }
  - { offset: 0x11E8A3, size: 0x8, addend: 0x0, symName: __MergedGlobals, symObjAddr: 0x6FCC90, symBinAddr: 0x1227390, symSize: 0x0 }
  - { offset: 0x12A8EF, size: 0x8, addend: 0x0, symName: __ZN5Eigen8internal26call_dense_assignment_loopINS_6MatrixIfLin1ELin1ELi0ELin1ELin1EEENS_13CwiseBinaryOpINS0_13scalar_sum_opIffEEKNS_12ArrayWrapperIKNS_5BlockIKNS_3MapIKNS2_IfLin1ELin1ELi1ELin1ELin1EEELi0ENS_6StrideILi0ELi0EEEEELin1ELin1ELb0EEEEEKNS4_INS0_17scalar_product_opIffEEKNS4_ISL_SJ_KNS_14CwiseNullaryOpINS0_18scalar_constant_opIfEEKNS_5ArrayIfLin1ELin1ELi1ELin1ELin1EEEEEEESJ_EEEENS0_9assign_opIffEEEEvRT_RKT0_RKT1_, symObjAddr: 0x1C070, symBinAddr: 0x392A0, symSize: 0x420 }
  - { offset: 0x12B4AC, size: 0x8, addend: 0x0, symName: __ZN5Eigen8internal26call_dense_assignment_loopINS_6MatrixIfLin1ELin1ELi0ELin1ELin1EEENS_13CwiseBinaryOpINS0_20scalar_difference_opIffEEKNS_12ArrayWrapperIS3_EEKNS4_INS0_18scalar_quotient_opIffEES9_KNS_14CwiseNullaryOpINS0_18scalar_constant_opIfEEKNS_5ArrayIfLin1ELin1ELi0ELin1ELin1EEEEEEEEENS0_9assign_opIffEEEEvRT_RKT0_RKT1_, symObjAddr: 0x1C520, symBinAddr: 0x396C0, symSize: 0x1BC }
  - { offset: 0x12BE86, size: 0x8, addend: 0x0, symName: __ZN5Eigen8internal26call_dense_assignment_loopINS_6MatrixIfLin1ELin1ELi0ELin1ELin1EEENS_13CwiseBinaryOpINS0_13scalar_sum_opIffEEKNS_12ArrayWrapperIS3_EES9_EENS0_9assign_opIffEEEEvRT_RKT0_RKT1_, symObjAddr: 0x1C6DC, symBinAddr: 0x3987C, symSize: 0x194 }
  - { offset: 0x12D65D, size: 0x8, addend: 0x0, symName: __MergedGlobals, symObjAddr: 0x6FCC90, symBinAddr: 0x1227390, symSize: 0x0 }
  - { offset: 0x12D679, size: 0x8, addend: 0x0, symName: __MergedGlobals, symObjAddr: 0x6FCC90, symBinAddr: 0x1227390, symSize: 0x0 }
  - { offset: 0x1B9095, size: 0x8, addend: 0x0, symName: __ZNSt3__135__uninitialized_allocator_copy_implB8ne180100INS_9allocatorINS_6vectorIiNS1_IiEEEEEEPKS4_S7_PS4_EET2_RT_T0_T1_S9_, symObjAddr: 0x162AC, symBinAddr: 0x335AC, symSize: 0x100 }
  - { offset: 0x1BC50F, size: 0x8, addend: 0x0, symName: __ZNSt3__113__tree_removeB8ne180100IPNS_16__tree_node_baseIPvEEEEvT_S5_, symObjAddr: 0x1027C, symBinAddr: 0x2DF94, symSize: 0x3C4 }
  - { offset: 0x1BE8CB, size: 0x8, addend: 0x0, symName: __ZNSt3__135__uninitialized_allocator_copy_implB8ne180100INS_9allocatorINS_6vectorIfNS1_IfEEEEEEPKS4_S7_PS4_EET2_RT_T0_T1_S9_, symObjAddr: 0x1A724, symBinAddr: 0x379E8, symSize: 0x100 }
  - { offset: 0x1BEF7C, size: 0x8, addend: 0x0, symName: __ZNSt3__135__uninitialized_allocator_copy_implB8ne180100INS_9allocatorINS_6vectorIiNS1_IiEEEEEEPS4_S6_S6_EET2_RT_T0_T1_S7_, symObjAddr: 0x18C74, symBinAddr: 0x35F60, symSize: 0x100 }
  - { offset: 0x1C0FA0, size: 0x8, addend: 0x0, symName: __ZNSt3__135__uninitialized_allocator_copy_implB8ne180100INS_9allocatorINS_6vectorIhNS1_IhEEEEEEPKS4_S7_PS4_EET2_RT_T0_T1_S9_, symObjAddr: 0x1DD78, symBinAddr: 0x3ADE8, symSize: 0xFC }
  - { offset: 0x1C6674, size: 0x8, addend: 0x0, symName: __MergedGlobals, symObjAddr: 0x6FCC90, symBinAddr: 0x1227390, symSize: 0x0 }
  - { offset: 0x1C6690, size: 0x8, addend: 0x0, symName: __MergedGlobals, symObjAddr: 0x6FCC90, symBinAddr: 0x1227390, symSize: 0x0 }
  - { offset: 0x1CB588, size: 0x8, addend: 0x0, symName: __MergedGlobals, symObjAddr: 0x6FCC90, symBinAddr: 0x1227390, symSize: 0x0 }
  - { offset: 0x1CB604, size: 0x8, addend: 0x0, symName: __MergedGlobals, symObjAddr: 0x6FCC90, symBinAddr: 0x1227390, symSize: 0x0 }
  - { offset: 0x1CB67B, size: 0x8, addend: 0x0, symName: __MergedGlobals, symObjAddr: 0x6FCC90, symBinAddr: 0x1227390, symSize: 0x0 }
  - { offset: 0x1CB6ED, size: 0x8, addend: 0x0, symName: __MergedGlobals, symObjAddr: 0x6FCC90, symBinAddr: 0x1227390, symSize: 0x0 }
  - { offset: 0x1CC413, size: 0x8, addend: 0x0, symName: __MergedGlobals, symObjAddr: 0x6FCC90, symBinAddr: 0x1227390, symSize: 0x0 }
  - { offset: 0x1CC493, size: 0x8, addend: 0x0, symName: __MergedGlobals, symObjAddr: 0x6FCC90, symBinAddr: 0x1227390, symSize: 0x0 }
  - { offset: 0x1CC4AF, size: 0x8, addend: 0x0, symName: __MergedGlobals, symObjAddr: 0x6FCC90, symBinAddr: 0x1227390, symSize: 0x0 }
  - { offset: 0x1CC4CB, size: 0x8, addend: 0x0, symName: __MergedGlobals, symObjAddr: 0x6FCC90, symBinAddr: 0x1227390, symSize: 0x0 }
  - { offset: 0x1CC4E8, size: 0x8, addend: 0x0, symName: __MergedGlobals, symObjAddr: 0x6FCC90, symBinAddr: 0x1227390, symSize: 0x0 }
  - { offset: 0x1CC505, size: 0x8, addend: 0x0, symName: __ZN7facesdkL6loggerE, symObjAddr: 0x6FCC80, symBinAddr: 0x1227380, symSize: 0x0 }
  - { offset: 0x1CCA0C, size: 0x8, addend: 0x0, symName: __ZN7facesdk7processEiPvPcPS0_PS1_, symObjAddr: 0x2EC, symBinAddr: 0x21BA4, symSize: 0x154 }
  - { offset: 0x1CCC7A, size: 0x8, addend: 0x0, symName: __ZN7facesdk7cmdInitEPKvPKcPPc, symObjAddr: 0x498, symBinAddr: 0x21CF8, symSize: 0x56C }
  - { offset: 0x1CE32E, size: 0x8, addend: 0x0, symName: __ZN7facesdk10cmdProcessEPvPKcPPc, symObjAddr: 0xEF0, symBinAddr: 0x22738, symSize: 0x390 }
  - { offset: 0x1CF0A6, size: 0x8, addend: 0x0, symName: __ZN7facesdk12freeLivenessEv, symObjAddr: 0x2E78, symBinAddr: 0x24684, symSize: 0x1B4 }
  - { offset: 0x1CFA4D, size: 0x8, addend: 0x0, symName: __ZN7facesdk19cmdAddDataToPackageEPKvPKc, symObjAddr: 0x1280, symBinAddr: 0x22AC8, symSize: 0x190 }
  - { offset: 0x1CFF89, size: 0x8, addend: 0x0, symName: __ZN7facesdk13cmdSetLicenseEPKvPKcPPc, symObjAddr: 0x21A4, symBinAddr: 0x239EC, symSize: 0x470 }
  - { offset: 0x1D1951, size: 0x8, addend: 0x0, symName: __ZN7facesdk18cmdStartNewSessionEPKcPPc, symObjAddr: 0xA1C, symBinAddr: 0x22264, symSize: 0x4D4 }
  - { offset: 0x1D2E87, size: 0x8, addend: 0x0, symName: __ZN7facesdk18cmdFinalizePackageEPPvPPc, symObjAddr: 0x1410, symBinAddr: 0x22C58, symSize: 0x890 }
  - { offset: 0x1D7197, size: 0x8, addend: 0x0, symName: __ZN7facesdk15cmdCompareFacesEPKcPPc, symObjAddr: 0x1CA0, symBinAddr: 0x234E8, symSize: 0x504 }
  - { offset: 0x1D87D9, size: 0x8, addend: 0x0, symName: __ZN7facesdk11setUpLoggerEPKc, symObjAddr: 0x2624, symBinAddr: 0x23E5C, symSize: 0x178 }
  - { offset: 0x1D8B0A, size: 0x8, addend: 0x0, symName: __ZN7facesdk12initLivenessEPKhRKN8nlohmann16json_abi_v3_12_010basic_jsonINSt3__13mapENS5_6vectorENS5_12basic_stringIcNS5_11char_traitsIcEENS5_9allocatorIcEEEEbxydSB_NS3_14adl_serializerENS7_IhNSB_IhEEEEvEE, symObjAddr: 0x2A60, symBinAddr: 0x2426C, symSize: 0xF8 }
  - { offset: 0x1D91AF, size: 0x8, addend: 0x0, symName: __ZN7facesdk15LivenessProcessERKN2cv3MatERKN8nlohmann16json_abi_v3_12_010basic_jsonINSt3__13mapENS7_6vectorENS7_12basic_stringIcNS7_11char_traitsIcEENS7_9allocatorIcEEEEbxydSD_NS5_14adl_serializerENS9_IhNSD_IhEEEEvEE, symObjAddr: 0x3438, symBinAddr: 0x24880, symSize: 0x810 }
  - { offset: 0x1DB137, size: 0x8, addend: 0x0, symName: __ZN7facesdk18transactionAllowedERKNSt3__112basic_stringIcNS0_11char_traitsIcEENS0_9allocatorIcEEEERKNS0_10shared_ptrIN9licensing14LicenseCheckerEEE, symObjAddr: 0x4010, symBinAddr: 0x25458, symSize: 0xD4 }
  - { offset: 0x1DB2FC, size: 0x8, addend: 0x0, symName: __ZN7facesdk12initResourceEPKhRKN8nlohmann16json_abi_v3_12_010basic_jsonINSt3__13mapENS5_6vectorENS5_12basic_stringIcNS5_11char_traitsIcEENS5_9allocatorIcEEEEbxydSB_NS3_14adl_serializerENS7_IhNSB_IhEEEEvEE, symObjAddr: 0x4110, symBinAddr: 0x25558, symSize: 0x2BC }
  - { offset: 0x1DC618, size: 0x8, addend: 0x0, symName: __ZN7facesdk16initFaceDetectorEv, symObjAddr: 0x4640, symBinAddr: 0x25A84, symSize: 0x984 }
  - { offset: 0x1E1B39, size: 0x8, addend: 0x0, symName: __ZN7facesdk21initOcclusionDetectorEv, symObjAddr: 0x4FC4, symBinAddr: 0x26408, symSize: 0x448 }
  - { offset: 0x1E4416, size: 0x8, addend: 0x0, symName: __ZN7facesdk23initEyeLandmarkDetectorEv, symObjAddr: 0x540C, symBinAddr: 0x26850, symSize: 0x574 }
  - { offset: 0x1E77AF, size: 0x8, addend: 0x0, symName: __ZN7facesdk18initFaceRecognizerEv, symObjAddr: 0x5988, symBinAddr: 0x26DC4, symSize: 0x1DC }
  - { offset: 0x1E828E, size: 0x8, addend: 0x0, symName: __ZN7facesdk8getValueIbLb1EEET_RKN8nlohmann16json_abi_v3_12_010basic_jsonINSt3__13mapENS5_6vectorENS5_12basic_stringIcNS5_11char_traitsIcEENS5_9allocatorIcEEEEbxydSB_NS3_14adl_serializerENS7_IhNSB_IhEEEEvEERKSD_OS1_, symObjAddr: 0x33F0, symBinAddr: 0x24838, symSize: 0x48 }
  - { offset: 0x1E83A7, size: 0x8, addend: 0x0, symName: __ZN7facesdk18detectEyeLandmarksERKN2cv3MatERKNS0_5Rect_IiEERNSt3__16vectorINS0_6Point_IiEENS8_9allocatorISB_EEEE, symObjAddr: 0x5F48, symBinAddr: 0x270F8, symSize: 0x10C }
  - { offset: 0x1E8559, size: 0x8, addend: 0x0, symName: __ZN7facesdk15createOrtRunnerERKNSt3__112basic_stringIcNS0_11char_traitsIcEENS0_9allocatorIcEEEERKN9inference21InferenceRunnerParamsE, symObjAddr: 0x43D0, symBinAddr: 0x25814, symSize: 0x270 }
  - { offset: 0x1EFDA4, size: 0x8, addend: 0x0, symName: __ZN8nlohmann16json_abi_v3_12_06detail9dtoa_impl6grisu2IdEEvPcRiS5_T_, symObjAddr: 0x15290, symBinAddr: 0x32C04, symSize: 0x1F0 }
  - { offset: 0x1F0434, size: 0x8, addend: 0x0, symName: __ZN8nlohmann16json_abi_v3_12_06detail9dtoa_impl16grisu2_digit_genEPcRiS4_NS2_5diyfpES5_S5_, symObjAddr: 0x15480, symBinAddr: 0x32DF4, symSize: 0x2E0 }
  - { offset: 0x1F0FB5, size: 0x8, addend: 0x0, symName: __ZN8nlohmann16json_abi_v3_12_06detail13input_adapterIPKcLi0EEENS1_22iterator_input_adapterIS4_EET_, symObjAddr: 0x8BEC, symBinAddr: 0x27C14, symSize: 0xCC }
  - { offset: 0x1F4890, size: 0x8, addend: 0x0, symName: __ZN8nlohmann16json_abi_v3_12_06detail6concatINSt3__112basic_stringIcNS3_11char_traitsIcEENS3_9allocatorIcEEEEJRA24_KcS9_EEET_DpOT0_, symObjAddr: 0xF5B4, symBinAddr: 0x2D614, symSize: 0xA0 }
  - { offset: 0x1F4BF7, size: 0x8, addend: 0x0, symName: __ZN8nlohmann16json_abi_v3_12_06detail6concatINSt3__112basic_stringIcNS3_11char_traitsIcEENS3_9allocatorIcEEEEJRA23_KcS9_EEET_DpOT0_, symObjAddr: 0x107E0, symBinAddr: 0x2E4F8, symSize: 0xA0 }
  - { offset: 0x1F595C, size: 0x8, addend: 0x0, symName: __ZN8nlohmann16json_abi_v3_12_06detail8to_charsIdEEPcS3_PKcT_, symObjAddr: 0x15024, symBinAddr: 0x32998, symSize: 0x26C }
  - { offset: 0x1F5A88, size: 0x8, addend: 0x0, symName: __ZN8nlohmann16json_abi_v3_12_06detail6concatINSt3__112basic_stringIcNS3_11char_traitsIcEENS3_9allocatorIcEEEEJRA29_KcS9_RA5_SA_S9_EEET_DpOT0_, symObjAddr: 0x14E78, symBinAddr: 0x327EC, symSize: 0x10C }
  - { offset: 0x1F5FB2, size: 0x8, addend: 0x0, symName: __ZN8nlohmann16json_abi_v3_12_06detail6concatINSt3__112basic_stringIcNS3_11char_traitsIcEENS3_9allocatorIcEEEEJRA39_KcS9_EEET_DpOT0_, symObjAddr: 0x14F84, symBinAddr: 0x328F8, symSize: 0xA0 }
  - { offset: 0x1F677C, size: 0x8, addend: 0x0, symName: __ZN8nlohmann16json_abi_v3_12_06detail6concatINSt3__112basic_stringIcNS3_11char_traitsIcEENS3_9allocatorIcEEEEJRA6_KcRKS9_RA12_SA_EEET_DpOT0_, symObjAddr: 0x15F00, symBinAddr: 0x33304, symSize: 0xC8 }
  - { offset: 0x1FD493, size: 0x8, addend: 0x0, symName: __ZN3Ort6GlobalIvE4api_E, symObjAddr: 0x24928, symBinAddr: 0x1219100, symSize: 0x0 }
  - { offset: 0x2012B3, size: 0x8, addend: 0x0, symName: __ZN3Ort12ThrowOnErrorEP9OrtStatus, symObjAddr: 0x1B3A8, symBinAddr: 0x38600, symSize: 0x13C }
  - { offset: 0x2049D9, size: 0x8, addend: 0x0, symName: __ZN8nlohmann16json_abi_v3_12_06detail10serializerINS0_10basic_jsonINSt3__13mapENS4_6vectorENS4_12basic_stringIcNS4_11char_traitsIcEENS4_9allocatorIcEEEEbxydSA_NS0_14adl_serializerENS6_IhNSA_IhEEEEvEEE12dump_integerIxLi0EEEvT_, symObjAddr: 0x14C2C, symBinAddr: 0x325A0, symSize: 0x24C }
  - { offset: 0x209BDC, size: 0x8, addend: 0x0, symName: __ZN5Eigen8internal21dense_assignment_loopINS0_31generic_dense_assignment_kernelINS0_9evaluatorINS_5BlockINS_6MatrixIfLin1ELin1ELi0ELin1ELin1EEELin1ELin1ELb0EEEEENS3_IS6_EENS0_9assign_opIffEELi0EEELi4ELi0EE3runERSC_, symObjAddr: 0x1C870, symBinAddr: 0x39A10, symSize: 0x3D0 }
  - { offset: 0x209C8B, size: 0x8, addend: 0x0, symName: __ZN5Eigen8internal21dense_assignment_loopINS0_31generic_dense_assignment_kernelINS0_9evaluatorINS_5BlockINS_6MatrixIfLin1ELin1ELi0ELin1ELin1EEELin1ELin1ELb0EEEEENS3_IS6_EENS0_9assign_opIffEELi0EEELi4ELi0EE3runERSC_, symObjAddr: 0x1C870, symBinAddr: 0x39A10, symSize: 0x3D0 }
  - { offset: 0x20AF15, size: 0x8, addend: 0x0, symName: __ZN9inference7convertIfEEvRKNSt3__16vectorIN2cv3MatENS1_9allocatorIS4_EEEERNS2_IT_NS5_ISA_EEEEb, symObjAddr: 0x18E80, symBinAddr: 0x3616C, symSize: 0x678 }
  - { offset: 0x20C440, size: 0x8, addend: 0x0, symName: __ZN9inference7convertIhEEvRKNSt3__16vectorIN2cv3MatENS1_9allocatorIS4_EEEERNS2_IT_NS5_ISA_EEEEb, symObjAddr: 0x1D5CC, symBinAddr: 0x3A6B0, symSize: 0x68C }
  - { offset: 0x2118B7, size: 0x8, addend: 0x0, symName: __ZNSt3__110unique_ptrIN7facesdk12FaceDetectorENS_14default_deleteIS2_EEED1B8ne180100Ev, symObjAddr: 0xB0, symBinAddr: 0x21968, symSize: 0x38 }
  - { offset: 0x211970, size: 0x8, addend: 0x0, symName: __ZNSt3__110unique_ptrIN7facesdk12FaceDetectorENS_14default_deleteIS2_EEED1B8ne180100Ev, symObjAddr: 0xB0, symBinAddr: 0x21968, symSize: 0x38 }
  - { offset: 0x211A85, size: 0x8, addend: 0x0, symName: __ZNSt3__110unique_ptrIN7facesdk14ClassifierBaseENS_14default_deleteIS2_EEED1B8ne180100Ev, symObjAddr: 0xE8, symBinAddr: 0x219A0, symSize: 0x38 }
  - { offset: 0x211B9A, size: 0x8, addend: 0x0, symName: __ZNSt3__110unique_ptrIN7facesdk23EyeLandmarkDetectorBaseENS_14default_deleteIS2_EEED1B8ne180100Ev, symObjAddr: 0x120, symBinAddr: 0x219D8, symSize: 0x38 }
  - { offset: 0x211CCB, size: 0x8, addend: 0x0, symName: __ZNSt3__110unique_ptrIN7facesdk15LivenessSessionENS_14default_deleteIS2_EEED1B8ne180100Ev, symObjAddr: 0x158, symBinAddr: 0x21A10, symSize: 0x34 }
  - { offset: 0x211D8B, size: 0x8, addend: 0x0, symName: __ZN7facesdk15LivenessSessionD2Ev, symObjAddr: 0x7BD4, symBinAddr: 0x279A4, symSize: 0x178 }
  - { offset: 0x21333E, size: 0x8, addend: 0x0, symName: __ZNSt3__110unique_ptrIN7facesdk8ResourceENS_14default_deleteIS2_EEED1B8ne180100Ev, symObjAddr: 0x18C, symBinAddr: 0x21A44, symSize: 0x94 }
  - { offset: 0x2138BF, size: 0x8, addend: 0x0, symName: __ZNSt3__110shared_ptrIN9licensing14LicenseCheckerEED1B8ne180100Ev, symObjAddr: 0x220, symBinAddr: 0x21AD8, symSize: 0x68 }
  - { offset: 0x2139C7, size: 0x8, addend: 0x0, symName: __ZNSt3__110unique_ptrIN6Mobile15FaceRecognitionENS_14default_deleteIS2_EEED1B8ne180100Ev, symObjAddr: 0x288, symBinAddr: 0x21B40, symSize: 0x34 }
  - { offset: 0x213A5D, size: 0x8, addend: 0x0, symName: __ZNSt3__16vectorIhNS_9allocatorIhEEED1B8ne180100Ev, symObjAddr: 0x2BC, symBinAddr: 0x21B74, symSize: 0x30 }
  - { offset: 0x214AD1, size: 0x8, addend: 0x0, symName: __ZN8nlohmann16json_abi_v3_12_010basic_jsonINSt3__13mapENS2_6vectorENS2_12basic_stringIcNS2_11char_traitsIcEENS2_9allocatorIcEEEEbxydS8_NS0_14adl_serializerENS4_IhNS8_IhEEEEvE5parseIRPKcEESE_OT_NS2_8functionIFbiNS0_6detail13parse_event_tERSE_EEEbb, symObjAddr: 0x279C, symBinAddr: 0x23FD4, symSize: 0x298 }
  - { offset: 0x216036, size: 0x8, addend: 0x0, symName: __ZN8nlohmann16json_abi_v3_12_06detail20external_constructorILNS1_7value_tE3EE9constructINS0_10basic_jsonINSt3__13mapENS7_6vectorENS7_12basic_stringIcNS7_11char_traitsIcEENS7_9allocatorIcEEEEbxydSD_NS0_14adl_serializerENS9_IhNSD_IhEEEEvEEA9_cLi0EEEvRT_RKT0_, symObjAddr: 0x13250, symBinAddr: 0x30C94, symSize: 0xEC }
  - { offset: 0x216647, size: 0x8, addend: 0x0, symName: __ZN8nlohmann16json_abi_v3_12_06detail20external_constructorILNS1_7value_tE3EE9constructINS0_10basic_jsonINSt3__13mapENS7_6vectorENS7_12basic_stringIcNS7_11char_traitsIcEENS7_9allocatorIcEEEEbxydSD_NS0_14adl_serializerENS9_IhNSD_IhEEEEvEEA6_cLi0EEEvRT_RKT0_, symObjAddr: 0x1333C, symBinAddr: 0x30D80, symSize: 0xEC }
  - { offset: 0x216C58, size: 0x8, addend: 0x0, symName: __ZN8nlohmann16json_abi_v3_12_06detail20external_constructorILNS1_7value_tE3EE9constructINS0_10basic_jsonINSt3__13mapENS7_6vectorENS7_12basic_stringIcNS7_11char_traitsIcEENS7_9allocatorIcEEEEbxydSD_NS0_14adl_serializerENS9_IhNSD_IhEEEEvEEA12_cLi0EEEvRT_RKT0_, symObjAddr: 0x13428, symBinAddr: 0x30E6C, symSize: 0xEC }
  - { offset: 0x217269, size: 0x8, addend: 0x0, symName: __ZNK8nlohmann16json_abi_v3_12_010basic_jsonINSt3__13mapENS2_6vectorENS2_12basic_stringIcNS2_11char_traitsIcEENS2_9allocatorIcEEEEbxydS8_NS0_14adl_serializerENS4_IhNS8_IhEEEEvE4dumpEicbNS0_6detail15error_handler_tE, symObjAddr: 0x2B84, symBinAddr: 0x24390, symSize: 0x2F4 }
  - { offset: 0x217F06, size: 0x8, addend: 0x0, symName: __ZN8nlohmann16json_abi_v3_12_06detail8json_refINS0_10basic_jsonINSt3__13mapENS4_6vectorENS4_12basic_stringIcNS4_11char_traitsIcEENS4_9allocatorIcEEEEbxydSA_NS0_14adl_serializerENS6_IhNSA_IhEEEEvEEED1Ev, symObjAddr: 0x2B58, symBinAddr: 0x24364, symSize: 0x2C }
  - { offset: 0x219195, size: 0x8, addend: 0x0, symName: __ZNK8nlohmann16json_abi_v3_12_010basic_jsonINSt3__13mapENS2_6vectorENS2_12basic_stringIcNS2_11char_traitsIcEENS2_9allocatorIcEEEEbxydS8_NS0_14adl_serializerENS4_IhNS8_IhEEEEvE2atERKSA_, symObjAddr: 0x15A7C, symBinAddr: 0x330D4, symSize: 0x230 }
  - { offset: 0x21AA47, size: 0x8, addend: 0x0, symName: __ZN13EncryptionKeyIL7KeyType0EE10FromStringERKNSt3__112basic_stringIcNS2_11char_traitsIcEENS2_9allocatorIcEEEE, symObjAddr: 0x3C48, symBinAddr: 0x25090, symSize: 0x304 }
  - { offset: 0x21B989, size: 0x8, addend: 0x0, symName: __ZN12SharedSecretD1Ev, symObjAddr: 0x3F4C, symBinAddr: 0x25394, symSize: 0x40 }
  - { offset: 0x21BC27, size: 0x8, addend: 0x0, symName: __ZN8Security15DoubleEncryptorD1Ev, symObjAddr: 0x3F8C, symBinAddr: 0x253D4, symSize: 0x84 }
  - { offset: 0x21C532, size: 0x8, addend: 0x0, symName: __ZN8nlohmann16json_abi_v3_12_06detail20external_constructorILNS1_7value_tE3EE9constructINS0_10basic_jsonINSt3__13mapENS7_6vectorENS7_12basic_stringIcNS7_11char_traitsIcEENS7_9allocatorIcEEEEbxydSD_NS0_14adl_serializerENS9_IhNSD_IhEEEEvEEA8_cLi0EEEvRT_RKT0_, symObjAddr: 0x15FC8, symBinAddr: 0x333CC, symSize: 0xEC }
  - { offset: 0x21CB43, size: 0x8, addend: 0x0, symName: __ZN8OptionalIN8nlohmann16json_abi_v3_12_010basic_jsonINSt3__13mapENS3_6vectorENS3_12basic_stringIcNS3_11char_traitsIcEENS3_9allocatorIcEEEEbxydS9_NS1_14adl_serializerENS5_IhNS9_IhEEEEvEEED1Ev, symObjAddr: 0x40E4, symBinAddr: 0x2552C, symSize: 0x2C }
  - { offset: 0x21D8AB, size: 0x8, addend: 0x0, symName: __ZN8nlohmann16json_abi_v3_12_06detail6parserINS0_10basic_jsonINSt3__13mapENS4_6vectorENS4_12basic_stringIcNS4_11char_traitsIcEENS4_9allocatorIcEEEEbxydSA_NS0_14adl_serializerENS6_IhNSA_IhEEEEvEENS1_22iterator_input_adapterIPKcEEEC2EOSK_NS4_8functionIFbiNS1_13parse_event_tERSG_EEEbb, symObjAddr: 0x9490, symBinAddr: 0x28440, symSize: 0x13C }
  - { offset: 0x21DABB, size: 0x8, addend: 0x0, symName: __ZN8nlohmann16json_abi_v3_12_06detail6parserINS0_10basic_jsonINSt3__13mapENS4_6vectorENS4_12basic_stringIcNS4_11char_traitsIcEENS4_9allocatorIcEEEEbxydSA_NS0_14adl_serializerENS6_IhNSA_IhEEEEvEENS1_22iterator_input_adapterIPKcEEE5parseEbRSG_, symObjAddr: 0x8CB8, symBinAddr: 0x27CE0, symSize: 0x760 }
  - { offset: 0x2204EB, size: 0x8, addend: 0x0, symName: __ZN8nlohmann16json_abi_v3_12_06detail10serializerINS0_10basic_jsonINSt3__13mapENS4_6vectorENS4_12basic_stringIcNS4_11char_traitsIcEENS4_9allocatorIcEEEEbxydSA_NS0_14adl_serializerENS6_IhNSA_IhEEEEvEEE4dumpERKSG_bbjj, symObjAddr: 0x135E4, symBinAddr: 0x30F58, symSize: 0x1024 }
  - { offset: 0x22233C, size: 0x8, addend: 0x0, symName: __ZN8nlohmann16json_abi_v3_12_06detail10serializerINS0_10basic_jsonINSt3__13mapENS4_6vectorENS4_12basic_stringIcNS4_11char_traitsIcEENS4_9allocatorIcEEEEbxydSA_NS0_14adl_serializerENS6_IhNSA_IhEEEEvEEED1Ev, symObjAddr: 0x14608, symBinAddr: 0x31F7C, symSize: 0x80 }
  - { offset: 0x222522, size: 0x8, addend: 0x0, symName: __ZNK8nlohmann16json_abi_v3_12_010basic_jsonINSt3__13mapENS2_6vectorENS2_12basic_stringIcNS2_11char_traitsIcEENS2_9allocatorIcEEEEbxydS8_NS0_14adl_serializerENS4_IhNS8_IhEEEEvE4dumpEicbNS0_6detail15error_handler_tE.cold.1, symObjAddr: 0x1FF7C, symBinAddr: 0xF4D17C, symSize: 0x2C }
  - { offset: 0x224726, size: 0x8, addend: 0x0, symName: __ZNK8nlohmann16json_abi_v3_12_010basic_jsonINSt3__13mapENS2_6vectorENS2_12basic_stringIcNS2_11char_traitsIcEENS2_9allocatorIcEEEEbxydS8_NS0_14adl_serializerENS4_IhNS8_IhEEEEvE2atIRKPKcLi0EEERKSE_OT_, symObjAddr: 0x610C, symBinAddr: 0x272BC, symSize: 0x1F0 }
  - { offset: 0x225233, size: 0x8, addend: 0x0, symName: __ZNK8nlohmann16json_abi_v3_12_010basic_jsonINSt3__13mapENS2_6vectorENS2_12basic_stringIcNS2_11char_traitsIcEENS2_9allocatorIcEEEEbxydS8_NS0_14adl_serializerENS4_IhNS8_IhEEEEvE5valueIfRA6_KcfLi0EEET1_OT0_OT_, symObjAddr: 0x64F0, symBinAddr: 0x274AC, symSize: 0x1F4 }
  - { offset: 0x22596C, size: 0x8, addend: 0x0, symName: __ZNK8nlohmann16json_abi_v3_12_010basic_jsonINSt3__13mapENS2_6vectorENS2_12basic_stringIcNS2_11char_traitsIcEENS2_9allocatorIcEEEEbxydS8_NS0_14adl_serializerENS4_IhNS8_IhEEEEvE5valueIfRA5_KcfLi0EEET1_OT0_OT_, symObjAddr: 0x66E4, symBinAddr: 0x276A0, symSize: 0x1F4 }
  - { offset: 0x226983, size: 0x8, addend: 0x0, symName: __ZNK8nlohmann16json_abi_v3_12_010basic_jsonINSt3__13mapENS2_6vectorENS2_12basic_stringIcNS2_11char_traitsIcEENS2_9allocatorIcEEEEbxydS8_NS0_14adl_serializerENS4_IhNS8_IhEEEEvE8containsIRKPKcLi0EEEbOT_, symObjAddr: 0x6054, symBinAddr: 0x27204, symSize: 0xB8 }
  - { offset: 0x226BF5, size: 0x8, addend: 0x0, symName: __ZNSt3__16vectorIN7facesdk5LFaceENS_9allocatorIS2_EEE24__emplace_back_slow_pathIJEEEPS2_DpOT_, symObjAddr: 0x1F8CC, symBinAddr: 0x3BC40, symSize: 0x20C }
  - { offset: 0x228102, size: 0x8, addend: 0x0, symName: __ZNSt3__110unique_ptrIN9licensing22TransactionRegistratorENS_14default_deleteIS2_EEED1B8ne180100Ev, symObjAddr: 0x69C0, symBinAddr: 0x27894, symSize: 0x34 }
  - { offset: 0x22952D, size: 0x8, addend: 0x0, symName: __ZN9inference21InferenceRunnerParams11inout_paramIxEC2ERKNSt3__112basic_stringIcNS3_11char_traitsIcEENS3_9allocatorIcEEEERKNS3_6vectorIxNS7_IxEEEE, symObjAddr: 0x161A4, symBinAddr: 0x334B8, symSize: 0xF4 }
  - { offset: 0x229A4C, size: 0x8, addend: 0x0, symName: __ZN7facesdk18FaceDetectorRetinaIN9inference18InferenceRunnerORTEEC2ERKNS_18FaceDetectorParamsENSt3__110unique_ptrINS1_15InferenceRunnerIS2_EENS7_14default_deleteISA_EEEERKNS_12PriorsConfigE, symObjAddr: 0x1642C, symBinAddr: 0x33718, symSize: 0x190 }
  - { offset: 0x22A45A, size: 0x8, addend: 0x0, symName: __ZN7facesdk12PriorsConfigD1Ev, symObjAddr: 0x5E14, symBinAddr: 0x27064, symSize: 0x94 }
  - { offset: 0x22A97C, size: 0x8, addend: 0x0, symName: __ZNSt3__16vectorINS0_IiNS_9allocatorIiEEEENS1_IS3_EEED1B8ne180100Ev, symObjAddr: 0x5DA0, symBinAddr: 0x26FF0, symSize: 0x74 }
  - { offset: 0x22AC16, size: 0x8, addend: 0x0, symName: __ZN7facesdk16initFaceDetectorEv.cold.1, symObjAddr: 0x1FFA8, symBinAddr: 0xF4D1A8, symSize: 0x40 }
  - { offset: 0x22AD5F, size: 0x8, addend: 0x0, symName: __ZN9inference21InferenceRunnerParamsD2Ev, symObjAddr: 0x70B8, symBinAddr: 0x278CC, symSize: 0xD8 }
  - { offset: 0x22B569, size: 0x8, addend: 0x0, symName: __ZN9inference21InferenceRunnerParams11inout_paramIxED1Ev, symObjAddr: 0x5D50, symBinAddr: 0x26FA0, symSize: 0x50 }
  - { offset: 0x22BB3E, size: 0x8, addend: 0x0, symName: __ZN7facesdk21initOcclusionDetectorEv.cold.1, symObjAddr: 0x1FFE8, symBinAddr: 0xF4D1E8, symSize: 0x40 }
  - { offset: 0x22D9CA, size: 0x8, addend: 0x0, symName: _process, symObjAddr: 0x69F4, symBinAddr: 0x278C8, symSize: 0x4 }
  - { offset: 0x22DA34, size: 0x8, addend: 0x0, symName: _process, symObjAddr: 0x69F4, symBinAddr: 0x278C8, symSize: 0x4 }
  - { offset: 0x22ECB8, size: 0x8, addend: 0x0, symName: __ZN7facesdk15LivenessSessionD2Ev, symObjAddr: 0x7BD4, symBinAddr: 0x279A4, symSize: 0x178 }
  - { offset: 0x231866, size: 0x8, addend: 0x0, symName: __ZN8nlohmann16json_abi_v3_12_010basic_jsonINSt3__13mapENS2_6vectorENS2_12basic_stringIcNS2_11char_traitsIcEENS2_9allocatorIcEEEEbxydS8_NS0_14adl_serializerENS4_IhNS8_IhEEEEvE10json_valueC2ENS0_6detail7value_tE, symObjAddr: 0x8560, symBinAddr: 0x27B1C, symSize: 0xF8 }
  - { offset: 0x232898, size: 0x8, addend: 0x0, symName: __ZN8nlohmann16json_abi_v3_12_06detail11parse_error6createIDnLi0EEES2_imRKNSt3__112basic_stringIcNS4_11char_traitsIcEENS4_9allocatorIcEEEET_, symObjAddr: 0xB3AC, symBinAddr: 0x29DE0, symSize: 0x2F0 }
  - { offset: 0x2344F6, size: 0x8, addend: 0x0, symName: __ZN8nlohmann16json_abi_v3_12_06detail6parserINS0_10basic_jsonINSt3__13mapENS4_6vectorENS4_12basic_stringIcNS4_11char_traitsIcEENS4_9allocatorIcEEEEbxydSA_NS0_14adl_serializerENS6_IhNSA_IhEEEEvEENS1_22iterator_input_adapterIPKcEEE18sax_parse_internalINS1_19json_sax_dom_parserISG_SK_EEEEbPT_, symObjAddr: 0xCF0C, symBinAddr: 0x2B504, symSize: 0xF48 }
  - { offset: 0x236A65, size: 0x8, addend: 0x0, symName: __ZN8nlohmann16json_abi_v3_12_06detail5lexerINS0_10basic_jsonINSt3__13mapENS4_6vectorENS4_12basic_stringIcNS4_11char_traitsIcEENS4_9allocatorIcEEEEbxydSA_NS0_14adl_serializerENS6_IhNSA_IhEEEEvEENS1_22iterator_input_adapterIPKcEEE4scanEv, symObjAddr: 0x9618, symBinAddr: 0x2857C, symSize: 0x28C }
  - { offset: 0x236D96, size: 0x8, addend: 0x0, symName: __ZN8nlohmann16json_abi_v3_12_06detail28json_sax_dom_callback_parserINS0_10basic_jsonINSt3__13mapENS4_6vectorENS4_12basic_stringIcNS4_11char_traitsIcEENS4_9allocatorIcEEEEbxydSA_NS0_14adl_serializerENS6_IhNSA_IhEEEEvEENS1_22iterator_input_adapterIPKcEEEC2ERSG_NS4_8functionIFbiNS1_13parse_event_tESM_EEEbPNS1_5lexerISG_SK_EE, symObjAddr: 0xDEA8, symBinAddr: 0x2C4A0, symSize: 0x184 }
  - { offset: 0x2370F9, size: 0x8, addend: 0x0, symName: __ZN8nlohmann16json_abi_v3_12_06detail6parserINS0_10basic_jsonINSt3__13mapENS4_6vectorENS4_12basic_stringIcNS4_11char_traitsIcEENS4_9allocatorIcEEEEbxydSA_NS0_14adl_serializerENS6_IhNSA_IhEEEEvEENS1_22iterator_input_adapterIPKcEEE18sax_parse_internalINS1_28json_sax_dom_callback_parserISG_SK_EEEEbPT_, symObjAddr: 0xB890, symBinAddr: 0x2A0D0, symSize: 0xF30 }
  - { offset: 0x2395F7, size: 0x8, addend: 0x0, symName: __ZN8nlohmann16json_abi_v3_12_06detail6parserINS0_10basic_jsonINSt3__13mapENS4_6vectorENS4_12basic_stringIcNS4_11char_traitsIcEENS4_9allocatorIcEEEEbxydSA_NS0_14adl_serializerENS6_IhNSA_IhEEEEvEENS1_22iterator_input_adapterIPKcEEE17exception_messageENS1_10lexer_baseISG_E10token_typeERKSC_, symObjAddr: 0xCB40, symBinAddr: 0x2B138, symSize: 0x3CC }
  - { offset: 0x23B324, size: 0x8, addend: 0x0, symName: __ZN8nlohmann16json_abi_v3_12_06detail28json_sax_dom_callback_parserINS0_10basic_jsonINSt3__13mapENS4_6vectorENS4_12basic_stringIcNS4_11char_traitsIcEENS4_9allocatorIcEEEEbxydSA_NS0_14adl_serializerENS6_IhNSA_IhEEEEvEENS1_22iterator_input_adapterIPKcEEED2Ev, symObjAddr: 0x11904, symBinAddr: 0x2F348, symSize: 0x88 }
  - { offset: 0x23BCB9, size: 0x8, addend: 0x0, symName: __ZN8nlohmann16json_abi_v3_12_06detail5lexerINS0_10basic_jsonINSt3__13mapENS4_6vectorENS4_12basic_stringIcNS4_11char_traitsIcEENS4_9allocatorIcEEEEbxydSA_NS0_14adl_serializerENS6_IhNSA_IhEEEEvEENS1_22iterator_input_adapterIPKcEEE15skip_whitespaceEv, symObjAddr: 0x98A4, symBinAddr: 0x28808, symSize: 0x26C }
  - { offset: 0x23C1F0, size: 0x8, addend: 0x0, symName: __ZN8nlohmann16json_abi_v3_12_06detail5lexerINS0_10basic_jsonINSt3__13mapENS4_6vectorENS4_12basic_stringIcNS4_11char_traitsIcEENS4_9allocatorIcEEEEbxydSA_NS0_14adl_serializerENS6_IhNSA_IhEEEEvEENS1_22iterator_input_adapterIPKcEEE11scan_numberEv, symObjAddr: 0xA970, symBinAddr: 0x297B4, symSize: 0x62C }
  - { offset: 0x23CFBE, size: 0x8, addend: 0x0, symName: __ZN8nlohmann16json_abi_v3_12_06detail5lexerINS0_10basic_jsonINSt3__13mapENS4_6vectorENS4_12basic_stringIcNS4_11char_traitsIcEENS4_9allocatorIcEEEEbxydSA_NS0_14adl_serializerENS6_IhNSA_IhEEEEvEENS1_22iterator_input_adapterIPKcEEE11scan_stringEv, symObjAddr: 0x9C30, symBinAddr: 0x28A74, symSize: 0xD40 }
  - { offset: 0x23EEBA, size: 0x8, addend: 0x0, symName: __ZN8nlohmann16json_abi_v3_12_06detail28json_sax_dom_callback_parserINS0_10basic_jsonINSt3__13mapENS4_6vectorENS4_12basic_stringIcNS4_11char_traitsIcEENS4_9allocatorIcEEEEbxydSA_NS0_14adl_serializerENS6_IhNSA_IhEEEEvEENS1_22iterator_input_adapterIPKcEEE12handle_valueIRbEENS4_4pairIbPSG_EEOT_b, symObjAddr: 0x10AEC, symBinAddr: 0x2E804, symSize: 0x21C }
  - { offset: 0x23F659, size: 0x8, addend: 0x0, symName: __ZN8nlohmann16json_abi_v3_12_06detail28json_sax_dom_callback_parserINS0_10basic_jsonINSt3__13mapENS4_6vectorENS4_12basic_stringIcNS4_11char_traitsIcEENS4_9allocatorIcEEEEbxydSA_NS0_14adl_serializerENS6_IhNSA_IhEEEEvEENS1_22iterator_input_adapterIPKcEEE12handle_valueIRxEENS4_4pairIbPSG_EEOT_b, symObjAddr: 0x10F1C, symBinAddr: 0x2EC34, symSize: 0x218 }
  - { offset: 0x23FE06, size: 0x8, addend: 0x0, symName: __ZN8nlohmann16json_abi_v3_12_06detail28json_sax_dom_callback_parserINS0_10basic_jsonINSt3__13mapENS4_6vectorENS4_12basic_stringIcNS4_11char_traitsIcEENS4_9allocatorIcEEEEbxydSA_NS0_14adl_serializerENS6_IhNSA_IhEEEEvEENS1_22iterator_input_adapterIPKcEEE12handle_valueIRSC_EENS4_4pairIbPSG_EEOT_b, symObjAddr: 0x11134, symBinAddr: 0x2EE4C, symSize: 0x288 }
  - { offset: 0x2408B0, size: 0x8, addend: 0x0, symName: __ZN8nlohmann16json_abi_v3_12_06detail28json_sax_dom_callback_parserINS0_10basic_jsonINSt3__13mapENS4_6vectorENS4_12basic_stringIcNS4_11char_traitsIcEENS4_9allocatorIcEEEEbxydSA_NS0_14adl_serializerENS6_IhNSA_IhEEEEvEENS1_22iterator_input_adapterIPKcEEE12start_objectEm, symObjAddr: 0xE140, symBinAddr: 0x2C624, symSize: 0x360 }
  - { offset: 0x2410EC, size: 0x8, addend: 0x0, symName: __ZN8nlohmann16json_abi_v3_12_06detail28json_sax_dom_callback_parserINS0_10basic_jsonINSt3__13mapENS4_6vectorENS4_12basic_stringIcNS4_11char_traitsIcEENS4_9allocatorIcEEEEbxydSA_NS0_14adl_serializerENS6_IhNSA_IhEEEEvEENS1_22iterator_input_adapterIPKcEEE10end_objectEv, symObjAddr: 0xE4A0, symBinAddr: 0x2C984, symSize: 0x28C }
  - { offset: 0x241986, size: 0x8, addend: 0x0, symName: __ZN8nlohmann16json_abi_v3_12_06detail28json_sax_dom_callback_parserINS0_10basic_jsonINSt3__13mapENS4_6vectorENS4_12basic_stringIcNS4_11char_traitsIcEENS4_9allocatorIcEEEEbxydSA_NS0_14adl_serializerENS6_IhNSA_IhEEEEvEENS1_22iterator_input_adapterIPKcEEE12handle_valueIDnEENS4_4pairIbPSG_EEOT_b, symObjAddr: 0x10D08, symBinAddr: 0x2EA20, symSize: 0x214 }
  - { offset: 0x242112, size: 0x8, addend: 0x0, symName: __ZN8nlohmann16json_abi_v3_12_06detail28json_sax_dom_callback_parserINS0_10basic_jsonINSt3__13mapENS4_6vectorENS4_12basic_stringIcNS4_11char_traitsIcEENS4_9allocatorIcEEEEbxydSA_NS0_14adl_serializerENS6_IhNSA_IhEEEEvEENS1_22iterator_input_adapterIPKcEEE12handle_valueIRdEENS4_4pairIbPSG_EEOT_b, symObjAddr: 0x108CC, symBinAddr: 0x2E5E4, symSize: 0x220 }
  - { offset: 0x2428D6, size: 0x8, addend: 0x0, symName: __ZN8nlohmann16json_abi_v3_12_06detail28json_sax_dom_callback_parserINS0_10basic_jsonINSt3__13mapENS4_6vectorENS4_12basic_stringIcNS4_11char_traitsIcEENS4_9allocatorIcEEEEbxydSA_NS0_14adl_serializerENS6_IhNSA_IhEEEEvEENS1_22iterator_input_adapterIPKcEEE12handle_valueIRyEENS4_4pairIbPSG_EEOT_b, symObjAddr: 0x113BC, symBinAddr: 0x2F0D4, symSize: 0x21C }
  - { offset: 0x243083, size: 0x8, addend: 0x0, symName: __ZN8nlohmann16json_abi_v3_12_06detail28json_sax_dom_callback_parserINS0_10basic_jsonINSt3__13mapENS4_6vectorENS4_12basic_stringIcNS4_11char_traitsIcEENS4_9allocatorIcEEEEbxydSA_NS0_14adl_serializerENS6_IhNSA_IhEEEEvEENS1_22iterator_input_adapterIPKcEEE11start_arrayEm, symObjAddr: 0xE960, symBinAddr: 0x2CE44, symSize: 0x364 }
  - { offset: 0x2438BF, size: 0x8, addend: 0x0, symName: __ZN8nlohmann16json_abi_v3_12_06detail28json_sax_dom_callback_parserINS0_10basic_jsonINSt3__13mapENS4_6vectorENS4_12basic_stringIcNS4_11char_traitsIcEENS4_9allocatorIcEEEEbxydSA_NS0_14adl_serializerENS6_IhNSA_IhEEEEvEENS1_22iterator_input_adapterIPKcEEE9end_arrayEv, symObjAddr: 0xECC4, symBinAddr: 0x2D1A8, symSize: 0x168 }
  - { offset: 0x243D13, size: 0x8, addend: 0x0, symName: __ZN8nlohmann16json_abi_v3_12_06detail28json_sax_dom_callback_parserINS0_10basic_jsonINSt3__13mapENS4_6vectorENS4_12basic_stringIcNS4_11char_traitsIcEENS4_9allocatorIcEEEEbxydSA_NS0_14adl_serializerENS6_IhNSA_IhEEEEvEENS1_22iterator_input_adapterIPKcEEE3keyERSC_, symObjAddr: 0xE72C, symBinAddr: 0x2CC10, symSize: 0x234 }
  - { offset: 0x2446F9, size: 0x8, addend: 0x0, symName: __ZNK8nlohmann16json_abi_v3_12_06detail5lexerINS0_10basic_jsonINSt3__13mapENS4_6vectorENS4_12basic_stringIcNS4_11char_traitsIcEENS4_9allocatorIcEEEEbxydSA_NS0_14adl_serializerENS6_IhNSA_IhEEEEvEENS1_22iterator_input_adapterIPKcEEE16get_token_stringEv, symObjAddr: 0xC814, symBinAddr: 0x2B054, symSize: 0xE4 }
  - { offset: 0x244982, size: 0x8, addend: 0x0, symName: __ZN8nlohmann16json_abi_v3_12_06detail28json_sax_dom_callback_parserINS0_10basic_jsonINSt3__13mapENS4_6vectorENS4_12basic_stringIcNS4_11char_traitsIcEENS4_9allocatorIcEEEEbxydSA_NS0_14adl_serializerENS6_IhNSA_IhEEEEvEENS1_22iterator_input_adapterIPKcEEE11parse_errorINS1_11parse_errorEEEbmRKSC_RKT_, symObjAddr: 0xC7C0, symBinAddr: 0x2B000, symSize: 0x54 }
  - { offset: 0x245269, size: 0x8, addend: 0x0, symName: __ZN8nlohmann16json_abi_v3_12_06detail28json_sax_dom_callback_parserINS0_10basic_jsonINSt3__13mapENS4_6vectorENS4_12basic_stringIcNS4_11char_traitsIcEENS4_9allocatorIcEEEEbxydSA_NS0_14adl_serializerENS6_IhNSA_IhEEEEvEENS1_22iterator_input_adapterIPKcEEE11parse_errorINS1_12out_of_rangeEEEbmRKSC_RKT_, symObjAddr: 0xEE2C, symBinAddr: 0x2D310, symSize: 0x54 }
  - { offset: 0x2452EF, size: 0x8, addend: 0x0, symName: __ZN8nlohmann16json_abi_v3_12_06detail28json_sax_dom_callback_parserINS0_10basic_jsonINSt3__13mapENS4_6vectorENS4_12basic_stringIcNS4_11char_traitsIcEENS4_9allocatorIcEEEEbxydSA_NS0_14adl_serializerENS6_IhNSA_IhEEEEvEENS1_22iterator_input_adapterIPKcEEE12start_objectEm, symObjAddr: 0xE140, symBinAddr: 0x2C624, symSize: 0x360 }
  - { offset: 0x2452FA, size: 0x8, addend: 0x0, symName: __ZN8nlohmann16json_abi_v3_12_06detail11parse_errorC1ERKS2_, symObjAddr: 0x115D8, symBinAddr: 0x2F2F0, symSize: 0x58 }
  - { offset: 0x2457E6, size: 0x8, addend: 0x0, symName: __ZN8nlohmann16json_abi_v3_12_06detail19json_sax_dom_parserINS0_10basic_jsonINSt3__13mapENS4_6vectorENS4_12basic_stringIcNS4_11char_traitsIcEENS4_9allocatorIcEEEEbxydSA_NS0_14adl_serializerENS6_IhNSA_IhEEEEvEENS1_22iterator_input_adapterIPKcEEE12handle_valueIRbEEPSG_OT_, symObjAddr: 0x12504, symBinAddr: 0x2FF48, symSize: 0x124 }
  - { offset: 0x245DCE, size: 0x8, addend: 0x0, symName: __ZN8nlohmann16json_abi_v3_12_06detail19json_sax_dom_parserINS0_10basic_jsonINSt3__13mapENS4_6vectorENS4_12basic_stringIcNS4_11char_traitsIcEENS4_9allocatorIcEEEEbxydSA_NS0_14adl_serializerENS6_IhNSA_IhEEEEvEENS1_22iterator_input_adapterIPKcEEE12handle_valueIRxEEPSG_OT_, symObjAddr: 0x12954, symBinAddr: 0x30398, symSize: 0x124 }
  - { offset: 0x2463C4, size: 0x8, addend: 0x0, symName: __ZN8nlohmann16json_abi_v3_12_06detail19json_sax_dom_parserINS0_10basic_jsonINSt3__13mapENS4_6vectorENS4_12basic_stringIcNS4_11char_traitsIcEENS4_9allocatorIcEEEEbxydSA_NS0_14adl_serializerENS6_IhNSA_IhEEEEvEENS1_22iterator_input_adapterIPKcEEE12handle_valueIRSC_EEPSG_OT_, symObjAddr: 0x12B94, symBinAddr: 0x305D8, symSize: 0x2A8 }
  - { offset: 0x247306, size: 0x8, addend: 0x0, symName: __ZN8nlohmann16json_abi_v3_12_06detail19json_sax_dom_parserINS0_10basic_jsonINSt3__13mapENS4_6vectorENS4_12basic_stringIcNS4_11char_traitsIcEENS4_9allocatorIcEEEEbxydSA_NS0_14adl_serializerENS6_IhNSA_IhEEEEvEENS1_22iterator_input_adapterIPKcEEE12start_objectEm, symObjAddr: 0x1198C, symBinAddr: 0x2F3D0, symSize: 0x29C }
  - { offset: 0x2479C1, size: 0x8, addend: 0x0, symName: __ZNSt3__16__treeINS_12__value_typeINS_12basic_stringIcNS_11char_traitsIcEENS_9allocatorIcEEEEN8nlohmann16json_abi_v3_12_010basic_jsonINS_3mapENS_6vectorES7_bxydS5_NS9_14adl_serializerENSC_IhNS5_IhEEEEvEEEENS_19__map_value_compareIS7_SH_NS_4lessIvEELb1EEENS5_ISH_EEE25__emplace_unique_key_argsIS7_JRKNS_21piecewise_construct_tENS_5tupleIJRKS7_EEENSS_IJEEEEEENS_4pairINS_15__tree_iteratorISH_PNS_11__tree_nodeISH_PvEElEEbEERKT_DpOT0_, symObjAddr: 0x10640, symBinAddr: 0x2E358, symSize: 0x1A0 }
  - { offset: 0x2481A8, size: 0x8, addend: 0x0, symName: __ZN8nlohmann16json_abi_v3_12_06detail19json_sax_dom_parserINS0_10basic_jsonINSt3__13mapENS4_6vectorENS4_12basic_stringIcNS4_11char_traitsIcEENS4_9allocatorIcEEEEbxydSA_NS0_14adl_serializerENS6_IhNSA_IhEEEEvEENS1_22iterator_input_adapterIPKcEEE12handle_valueIDnEEPSG_OT_, symObjAddr: 0x12744, symBinAddr: 0x30188, symSize: 0x100 }
  - { offset: 0x24873B, size: 0x8, addend: 0x0, symName: __ZN8nlohmann16json_abi_v3_12_06detail19json_sax_dom_parserINS0_10basic_jsonINSt3__13mapENS4_6vectorENS4_12basic_stringIcNS4_11char_traitsIcEENS4_9allocatorIcEEEEbxydSA_NS0_14adl_serializerENS6_IhNSA_IhEEEEvEENS1_22iterator_input_adapterIPKcEEE12handle_valueIRdEEPSG_OT_, symObjAddr: 0x122C0, symBinAddr: 0x2FD04, symSize: 0x124 }
  - { offset: 0x248D33, size: 0x8, addend: 0x0, symName: __ZN8nlohmann16json_abi_v3_12_06detail19json_sax_dom_parserINS0_10basic_jsonINSt3__13mapENS4_6vectorENS4_12basic_stringIcNS4_11char_traitsIcEENS4_9allocatorIcEEEEbxydSA_NS0_14adl_serializerENS6_IhNSA_IhEEEEvEENS1_22iterator_input_adapterIPKcEEE12handle_valueIRyEEPSG_OT_, symObjAddr: 0x13010, symBinAddr: 0x30A54, symSize: 0x124 }
  - { offset: 0x249329, size: 0x8, addend: 0x0, symName: __ZN8nlohmann16json_abi_v3_12_06detail19json_sax_dom_parserINS0_10basic_jsonINSt3__13mapENS4_6vectorENS4_12basic_stringIcNS4_11char_traitsIcEENS4_9allocatorIcEEEEbxydSA_NS0_14adl_serializerENS6_IhNSA_IhEEEEvEENS1_22iterator_input_adapterIPKcEEE11start_arrayEm, symObjAddr: 0x11C28, symBinAddr: 0x2F66C, symSize: 0x29C }
  - { offset: 0x2499D5, size: 0x8, addend: 0x0, symName: __ZN8nlohmann16json_abi_v3_12_06detail19json_sax_dom_parserINS0_10basic_jsonINSt3__13mapENS4_6vectorENS4_12basic_stringIcNS4_11char_traitsIcEENS4_9allocatorIcEEEEbxydSA_NS0_14adl_serializerENS6_IhNSA_IhEEEEvEENS1_22iterator_input_adapterIPKcEEE11parse_errorINS1_11parse_errorEEEbmRKSC_RKT_, symObjAddr: 0xDE54, symBinAddr: 0x2C44C, symSize: 0x54 }
  - { offset: 0x249A26, size: 0x8, addend: 0x0, symName: __ZN8nlohmann16json_abi_v3_12_06detail19json_sax_dom_parserINS0_10basic_jsonINSt3__13mapENS4_6vectorENS4_12basic_stringIcNS4_11char_traitsIcEENS4_9allocatorIcEEEEbxydSA_NS0_14adl_serializerENS6_IhNSA_IhEEEEvEENS1_22iterator_input_adapterIPKcEEE11parse_errorINS1_12out_of_rangeEEEbmRKSC_RKT_, symObjAddr: 0x11EC4, symBinAddr: 0x2F908, symSize: 0x54 }
  - { offset: 0x249A94, size: 0x8, addend: 0x0, symName: __ZN8nlohmann16json_abi_v3_12_06detail28json_sax_dom_callback_parserINS0_10basic_jsonINSt3__13mapENS4_6vectorENS4_12basic_stringIcNS4_11char_traitsIcEENS4_9allocatorIcEEEEbxydSA_NS0_14adl_serializerENS6_IhNSA_IhEEEEvEENS1_22iterator_input_adapterIPKcEEEC2ERSG_NS4_8functionIFbiNS1_13parse_event_tESM_EEEbPNS1_5lexerISG_SK_EE.cold.1, symObjAddr: 0x20028, symBinAddr: 0xF4D228, symSize: 0x50 }
  - { offset: 0x24A240, size: 0x8, addend: 0x0, symName: __ZN8nlohmann16json_abi_v3_12_06detail28json_sax_dom_callback_parserINS0_10basic_jsonINSt3__13mapENS4_6vectorENS4_12basic_stringIcNS4_11char_traitsIcEENS4_9allocatorIcEEEEbxydSA_NS0_14adl_serializerENS6_IhNSA_IhEEEEvEENS1_22iterator_input_adapterIPKcEEE12handle_valueINS1_7value_tEEENS4_4pairIbPSG_EEOT_b, symObjAddr: 0xF134, symBinAddr: 0x2D364, symSize: 0x2B0 }
  - { offset: 0x24B98D, size: 0x8, addend: 0x0, symName: __ZNK8nlohmann16json_abi_v3_12_06detail9iter_implINS0_10basic_jsonINSt3__13mapENS4_6vectorENS4_12basic_stringIcNS4_11char_traitsIcEENS4_9allocatorIcEEEEbxydSA_NS0_14adl_serializerENS6_IhNSA_IhEEEEvEEEeqISH_LDn0EEEbRKT_, symObjAddr: 0xFC28, symBinAddr: 0x2DBF4, symSize: 0x124 }
  - { offset: 0x24BBE1, size: 0x8, addend: 0x0, symName: __ZNK8nlohmann16json_abi_v3_12_06detail9iter_implINS0_10basic_jsonINSt3__13mapENS4_6vectorENS4_12basic_stringIcNS4_11char_traitsIcEENS4_9allocatorIcEEEEbxydSA_NS0_14adl_serializerENS6_IhNSA_IhEEEEvEEEptEv, symObjAddr: 0xF800, symBinAddr: 0x2D7CC, symSize: 0x100 }
  - { offset: 0x24BDFC, size: 0x8, addend: 0x0, symName: __ZN8nlohmann16json_abi_v3_12_010basic_jsonINSt3__13mapENS2_6vectorENS2_12basic_stringIcNS2_11char_traitsIcEENS2_9allocatorIcEEEEbxydS8_NS0_14adl_serializerENS4_IhNS8_IhEEEEvE5eraseINS0_6detail9iter_implISE_EELi0EEET_SJ_, symObjAddr: 0xF900, symBinAddr: 0x2D8CC, symSize: 0x328 }
  - { offset: 0x24C927, size: 0x8, addend: 0x0, symName: __ZN8nlohmann16json_abi_v3_12_06detail12out_of_rangeC1ERKS2_, symObjAddr: 0x10880, symBinAddr: 0x2E598, symSize: 0x4C }
  - { offset: 0x24CB21, size: 0x8, addend: 0x0, symName: __ZNSt3__16vectorIN8nlohmann16json_abi_v3_12_010basic_jsonINS_3mapES0_NS_12basic_stringIcNS_11char_traitsIcEENS_9allocatorIcEEEEbxydS8_NS2_14adl_serializerENS0_IhNS8_IhEEEEvEENS8_ISE_EEE24__emplace_back_slow_pathIJSE_EEEPSE_DpOT_, symObjAddr: 0xF6A0, symBinAddr: 0x2D6B4, symSize: 0x118 }
  - { offset: 0x24D141, size: 0x8, addend: 0x0, symName: __ZN8nlohmann16json_abi_v3_12_06detail16invalid_iterator6createIPNS0_10basic_jsonINSt3__13mapENS5_6vectorENS5_12basic_stringIcNS5_11char_traitsIcEENS5_9allocatorIcEEEEbxydSB_NS0_14adl_serializerENS7_IhNSB_IhEEEEvEELi0EEES2_iRKSD_T_, symObjAddr: 0xFD4C, symBinAddr: 0x2DD18, symSize: 0x1C4 }
  - { offset: 0x24E061, size: 0x8, addend: 0x0, symName: __ZNSt3__16__treeINS_12__value_typeINS_12basic_stringIcNS_11char_traitsIcEENS_9allocatorIcEEEEN8nlohmann16json_abi_v3_12_010basic_jsonINS_3mapENS_6vectorES7_bxydS5_NS9_14adl_serializerENSC_IhNS5_IhEEEEvEEEENS_19__map_value_compareIS7_SH_NS_4lessIvEELb1EEENS5_ISH_EEE5eraseENS_21__tree_const_iteratorISH_PNS_11__tree_nodeISH_PvEElEE, symObjAddr: 0x101C4, symBinAddr: 0x2DEDC, symSize: 0xB8 }
  - { offset: 0x24EC52, size: 0x8, addend: 0x0, symName: __ZN8nlohmann16json_abi_v3_12_06detail19json_sax_dom_parserINS0_10basic_jsonINSt3__13mapENS4_6vectorENS4_12basic_stringIcNS4_11char_traitsIcEENS4_9allocatorIcEEEEbxydSA_NS0_14adl_serializerENS6_IhNSA_IhEEEEvEENS1_22iterator_input_adapterIPKcEEE12handle_valueINS1_7value_tEEEPSG_OT_, symObjAddr: 0x11F18, symBinAddr: 0x2F95C, symSize: 0x24C }
  - { offset: 0x24FCB6, size: 0x8, addend: 0x0, symName: __ZNSt3__16vectorIN8nlohmann16json_abi_v3_12_010basic_jsonINS_3mapES0_NS_12basic_stringIcNS_11char_traitsIcEENS_9allocatorIcEEEEbxydS8_NS2_14adl_serializerENS0_IhNS8_IhEEEEvEENS8_ISE_EEE24__emplace_back_slow_pathIJNS2_6detail7value_tEEEEPSE_DpOT_, symObjAddr: 0x12164, symBinAddr: 0x2FBA8, symSize: 0x15C }
  - { offset: 0x2504CC, size: 0x8, addend: 0x0, symName: __ZNSt3__16vectorIN8nlohmann16json_abi_v3_12_010basic_jsonINS_3mapES0_NS_12basic_stringIcNS_11char_traitsIcEENS_9allocatorIcEEEEbxydS8_NS2_14adl_serializerENS0_IhNS8_IhEEEEvEENS8_ISE_EEE24__emplace_back_slow_pathIJRdEEEPSE_DpOT_, symObjAddr: 0x123E4, symBinAddr: 0x2FE28, symSize: 0x120 }
  - { offset: 0x250BD9, size: 0x8, addend: 0x0, symName: __ZNSt3__16vectorIN8nlohmann16json_abi_v3_12_010basic_jsonINS_3mapES0_NS_12basic_stringIcNS_11char_traitsIcEENS_9allocatorIcEEEEbxydS8_NS2_14adl_serializerENS0_IhNS8_IhEEEEvEENS8_ISE_EEE24__emplace_back_slow_pathIJRbEEEPSE_DpOT_, symObjAddr: 0x12628, symBinAddr: 0x3006C, symSize: 0x11C }
  - { offset: 0x2512C7, size: 0x8, addend: 0x0, symName: __ZNSt3__16vectorIN8nlohmann16json_abi_v3_12_010basic_jsonINS_3mapES0_NS_12basic_stringIcNS_11char_traitsIcEENS_9allocatorIcEEEEbxydS8_NS2_14adl_serializerENS0_IhNS8_IhEEEEvEENS8_ISE_EEE24__emplace_back_slow_pathIJDnEEEPSE_DpOT_, symObjAddr: 0x12844, symBinAddr: 0x30288, symSize: 0x110 }
  - { offset: 0x2519AC, size: 0x8, addend: 0x0, symName: __ZNSt3__16vectorIN8nlohmann16json_abi_v3_12_010basic_jsonINS_3mapES0_NS_12basic_stringIcNS_11char_traitsIcEENS_9allocatorIcEEEEbxydS8_NS2_14adl_serializerENS0_IhNS8_IhEEEEvEENS8_ISE_EEE24__emplace_back_slow_pathIJRxEEEPSE_DpOT_, symObjAddr: 0x12A78, symBinAddr: 0x304BC, symSize: 0x11C }
  - { offset: 0x2520A8, size: 0x8, addend: 0x0, symName: __ZNSt3__16vectorIN8nlohmann16json_abi_v3_12_010basic_jsonINS_3mapES0_NS_12basic_stringIcNS_11char_traitsIcEENS_9allocatorIcEEEEbxydS8_NS2_14adl_serializerENS0_IhNS8_IhEEEEvEENS8_ISE_EEE24__emplace_back_slow_pathIJRSA_EEEPSE_DpOT_, symObjAddr: 0x12E3C, symBinAddr: 0x30880, symSize: 0x1D4 }
  - { offset: 0x252B2B, size: 0x8, addend: 0x0, symName: __ZNSt3__16vectorIN8nlohmann16json_abi_v3_12_010basic_jsonINS_3mapES0_NS_12basic_stringIcNS_11char_traitsIcEENS_9allocatorIcEEEEbxydS8_NS2_14adl_serializerENS0_IhNS8_IhEEEEvEENS8_ISE_EEE24__emplace_back_slow_pathIJRyEEEPSE_DpOT_, symObjAddr: 0x13134, symBinAddr: 0x30B78, symSize: 0x11C }
  - { offset: 0x253B63, size: 0x8, addend: 0x0, symName: __ZN8nlohmann16json_abi_v3_12_06detail10serializerINS0_10basic_jsonINSt3__13mapENS4_6vectorENS4_12basic_stringIcNS4_11char_traitsIcEENS4_9allocatorIcEEEEbxydSA_NS0_14adl_serializerENS6_IhNSA_IhEEEEvEEE12dump_escapedERKSC_b, symObjAddr: 0x146E0, symBinAddr: 0x32054, symSize: 0x54C }
  - { offset: 0x2545C5, size: 0x8, addend: 0x0, symName: __ZNSt3__120__shared_ptr_emplaceIN8nlohmann16json_abi_v3_12_06detail21output_string_adapterIcNS_12basic_stringIcNS_11char_traitsIcEENS_9allocatorIcEEEEEENS8_ISB_EEED1Ev, symObjAddr: 0x14688, symBinAddr: 0x31FFC, symSize: 0x10 }
  - { offset: 0x2545E7, size: 0x8, addend: 0x0, symName: __ZNSt3__120__shared_ptr_emplaceIN8nlohmann16json_abi_v3_12_06detail21output_string_adapterIcNS_12basic_stringIcNS_11char_traitsIcEENS_9allocatorIcEEEEEENS8_ISB_EEED1Ev, symObjAddr: 0x14688, symBinAddr: 0x31FFC, symSize: 0x10 }
  - { offset: 0x25461D, size: 0x8, addend: 0x0, symName: __ZNSt3__120__shared_ptr_emplaceIN8nlohmann16json_abi_v3_12_06detail21output_string_adapterIcNS_12basic_stringIcNS_11char_traitsIcEENS_9allocatorIcEEEEEENS8_ISB_EEED0Ev, symObjAddr: 0x14698, symBinAddr: 0x3200C, symSize: 0x20 }
  - { offset: 0x254709, size: 0x8, addend: 0x0, symName: __ZNSt3__120__shared_ptr_emplaceIN8nlohmann16json_abi_v3_12_06detail21output_string_adapterIcNS_12basic_stringIcNS_11char_traitsIcEENS_9allocatorIcEEEEEENS8_ISB_EEE16__on_zero_sharedEv, symObjAddr: 0x146B8, symBinAddr: 0x3202C, symSize: 0xC }
  - { offset: 0x254732, size: 0x8, addend: 0x0, symName: __ZNSt3__120__shared_ptr_emplaceIN8nlohmann16json_abi_v3_12_06detail21output_string_adapterIcNS_12basic_stringIcNS_11char_traitsIcEENS_9allocatorIcEEEEEENS8_ISB_EEE16__on_zero_sharedEv, symObjAddr: 0x146B8, symBinAddr: 0x3202C, symSize: 0xC }
  - { offset: 0x254750, size: 0x8, addend: 0x0, symName: __ZNSt3__120__shared_ptr_emplaceIN8nlohmann16json_abi_v3_12_06detail21output_string_adapterIcNS_12basic_stringIcNS_11char_traitsIcEENS_9allocatorIcEEEEEENS8_ISB_EEE16__on_zero_sharedEv, symObjAddr: 0x146B8, symBinAddr: 0x3202C, symSize: 0xC }
  - { offset: 0x25476E, size: 0x8, addend: 0x0, symName: __ZNSt3__120__shared_ptr_emplaceIN8nlohmann16json_abi_v3_12_06detail21output_string_adapterIcNS_12basic_stringIcNS_11char_traitsIcEENS_9allocatorIcEEEEEENS8_ISB_EEE16__on_zero_sharedEv, symObjAddr: 0x146B8, symBinAddr: 0x3202C, symSize: 0xC }
  - { offset: 0x2547F1, size: 0x8, addend: 0x0, symName: __ZNSt3__120__shared_ptr_emplaceIN8nlohmann16json_abi_v3_12_06detail21output_string_adapterIcNS_12basic_stringIcNS_11char_traitsIcEENS_9allocatorIcEEEEEENS8_ISB_EEE21__on_zero_shared_weakEv, symObjAddr: 0x146C4, symBinAddr: 0x32038, symSize: 0x4 }
  - { offset: 0x254824, size: 0x8, addend: 0x0, symName: __ZNSt3__120__shared_ptr_emplaceIN8nlohmann16json_abi_v3_12_06detail21output_string_adapterIcNS_12basic_stringIcNS_11char_traitsIcEENS_9allocatorIcEEEEEENS8_ISB_EEE21__on_zero_shared_weakEv, symObjAddr: 0x146C4, symBinAddr: 0x32038, symSize: 0x4 }
  - { offset: 0x254846, size: 0x8, addend: 0x0, symName: __ZNSt3__120__shared_ptr_emplaceIN8nlohmann16json_abi_v3_12_06detail21output_string_adapterIcNS_12basic_stringIcNS_11char_traitsIcEENS_9allocatorIcEEEEEENS8_ISB_EEE21__on_zero_shared_weakEv, symObjAddr: 0x146C4, symBinAddr: 0x32038, symSize: 0x4 }
  - { offset: 0x254868, size: 0x8, addend: 0x0, symName: __ZNSt3__120__shared_ptr_emplaceIN8nlohmann16json_abi_v3_12_06detail21output_string_adapterIcNS_12basic_stringIcNS_11char_traitsIcEENS_9allocatorIcEEEEEENS8_ISB_EEE21__on_zero_shared_weakEv, symObjAddr: 0x146C4, symBinAddr: 0x32038, symSize: 0x4 }
  - { offset: 0x254894, size: 0x8, addend: 0x0, symName: __ZNSt3__120__shared_ptr_emplaceIN8nlohmann16json_abi_v3_12_06detail21output_string_adapterIcNS_12basic_stringIcNS_11char_traitsIcEENS_9allocatorIcEEEEEENS8_ISB_EEE21__on_zero_shared_weakEv, symObjAddr: 0x146C4, symBinAddr: 0x32038, symSize: 0x4 }
  - { offset: 0x2548BB, size: 0x8, addend: 0x0, symName: __ZNSt3__120__shared_ptr_emplaceIN8nlohmann16json_abi_v3_12_06detail21output_string_adapterIcNS_12basic_stringIcNS_11char_traitsIcEENS_9allocatorIcEEEEEENS8_ISB_EEE21__on_zero_shared_weakEv, symObjAddr: 0x146C4, symBinAddr: 0x32038, symSize: 0x4 }
  - { offset: 0x2548E6, size: 0x8, addend: 0x0, symName: __ZN8nlohmann16json_abi_v3_12_06detail21output_string_adapterIcNSt3__112basic_stringIcNS3_11char_traitsIcEENS3_9allocatorIcEEEEE15write_characterEc, symObjAddr: 0x146C8, symBinAddr: 0x3203C, symSize: 0x8 }
  - { offset: 0x25491B, size: 0x8, addend: 0x0, symName: __ZN8nlohmann16json_abi_v3_12_06detail21output_string_adapterIcNSt3__112basic_stringIcNS3_11char_traitsIcEENS3_9allocatorIcEEEEE16write_charactersEPKcm, symObjAddr: 0x146D0, symBinAddr: 0x32044, symSize: 0x8 }
  - { offset: 0x25495E, size: 0x8, addend: 0x0, symName: __ZN8nlohmann16json_abi_v3_12_06detail21output_string_adapterIcNSt3__112basic_stringIcNS3_11char_traitsIcEENS3_9allocatorIcEEEEED1Ev, symObjAddr: 0x146D8, symBinAddr: 0x3204C, symSize: 0x4 }
  - { offset: 0x254989, size: 0x8, addend: 0x0, symName: __ZN8nlohmann16json_abi_v3_12_06detail21output_string_adapterIcNSt3__112basic_stringIcNS3_11char_traitsIcEENS3_9allocatorIcEEEEED0Ev, symObjAddr: 0x146DC, symBinAddr: 0x32050, symSize: 0x4 }
  - { offset: 0x255549, size: 0x8, addend: 0x0, symName: __ZN9inference21InferenceRunnerParams11inout_paramIxEC2ERKNSt3__112basic_stringIcNS3_11char_traitsIcEENS3_9allocatorIcEEEERKNS3_6vectorIxNS7_IxEEEE, symObjAddr: 0x161A4, symBinAddr: 0x334B8, symSize: 0xF4 }
  - { offset: 0x255749, size: 0x8, addend: 0x0, symName: __ZN9inference21InferenceRunnerParams11inout_paramIxEC2ERKNSt3__112basic_stringIcNS3_11char_traitsIcEENS3_9allocatorIcEEEERKNS3_6vectorIxNS7_IxEEEE.cold.1, symObjAddr: 0x20078, symBinAddr: 0xF4D278, symSize: 0x14 }
  - { offset: 0x255764, size: 0x8, addend: 0x0, symName: __ZN9inference21InferenceRunnerParams11inout_paramIxEC2ERKNSt3__112basic_stringIcNS3_11char_traitsIcEENS3_9allocatorIcEEEERKNS3_6vectorIxNS7_IxEEEE.cold.1, symObjAddr: 0x20078, symBinAddr: 0xF4D278, symSize: 0x14 }
  - { offset: 0x255778, size: 0x8, addend: 0x0, symName: __ZN9inference21InferenceRunnerParams11inout_paramIxEC2ERKNSt3__112basic_stringIcNS3_11char_traitsIcEENS3_9allocatorIcEEEERKNS3_6vectorIxNS7_IxEEEE.cold.1, symObjAddr: 0x20078, symBinAddr: 0xF4D278, symSize: 0x14 }
  - { offset: 0x25578D, size: 0x8, addend: 0x0, symName: __ZN9inference21InferenceRunnerParams11inout_paramIxEC2ERKNSt3__112basic_stringIcNS3_11char_traitsIcEENS3_9allocatorIcEEEERKNS3_6vectorIxNS7_IxEEEE.cold.1, symObjAddr: 0x20078, symBinAddr: 0xF4D278, symSize: 0x14 }
  - { offset: 0x255865, size: 0x8, addend: 0x0, symName: __ZNSt3__135__uninitialized_allocator_copy_implB8ne180100INS_9allocatorINS_6vectorIiNS1_IiEEEEEEPKS4_S7_PS4_EET2_RT_T0_T1_S9_, symObjAddr: 0x162AC, symBinAddr: 0x335AC, symSize: 0x100 }
  - { offset: 0x255B1A, size: 0x8, addend: 0x0, symName: __ZNSt3__128__exception_guard_exceptionsINS_29_AllocatorDestroyRangeReverseINS_9allocatorINS_6vectorIiNS2_IiEEEEEEPS5_EEED1B8ne180100Ev, symObjAddr: 0x163AC, symBinAddr: 0x336AC, symSize: 0x6C }
  - { offset: 0x255D4A, size: 0x8, addend: 0x0, symName: __ZN7facesdk18FaceDetectorRetinaIN9inference18InferenceRunnerORTEEC2ERKNS_18FaceDetectorParamsENSt3__110unique_ptrINS1_15InferenceRunnerIS2_EENS7_14default_deleteISA_EEEERKNS_12PriorsConfigE, symObjAddr: 0x1642C, symBinAddr: 0x33718, symSize: 0x190 }
  - { offset: 0x255FC0, size: 0x8, addend: 0x0, symName: __ZN7facesdk12PriorsConfigC2ERKS0_, symObjAddr: 0x18A6C, symBinAddr: 0x35D58, symSize: 0x134 }
  - { offset: 0x259979, size: 0x8, addend: 0x0, symName: __ZNK7facesdk18FaceDetectorRetinaIN9inference18InferenceRunnerORTEE6detectERKN2cv3MatERNSt3__16vectorINS4_5Rect_IiEENS8_9allocatorISB_EEEERNS9_INS9_INS4_6Point_IiEENSC_ISH_EEEENSC_ISJ_EEEERNS9_INS9_IfNSC_IfEEEENSC_ISO_EEEE, symObjAddr: 0x165BC, symBinAddr: 0x338A8, symSize: 0x2320 }
  - { offset: 0x262B45, size: 0x8, addend: 0x0, symName: __ZNSt3__16vectorIN2cv3MatENS_9allocatorIS2_EEEC1B8ne180100ESt16initializer_listIS2_E, symObjAddr: 0x18D74, symBinAddr: 0x36060, symSize: 0x10C }
  - { offset: 0x262FB9, size: 0x8, addend: 0x0, symName: __ZN9inference15InferenceRunnerINS_18InferenceRunnerORTEE3runIffEEbmRKNSt3__16vectorINS5_IT_NS4_9allocatorIS6_EEEENS7_IS9_EEEERNS5_INS5_IT0_NS7_ISE_EEEENS7_ISG_EEEE, symObjAddr: 0x194F8, symBinAddr: 0x367E4, symSize: 0xAC }
  - { offset: 0x2633D2, size: 0x8, addend: 0x0, symName: __ZN5Eigen15PlainObjectBaseINS_6MatrixIfLin1ELi1ELi0ELin1ELi1EEEE6resizeEll, symObjAddr: 0x1BF40, symBinAddr: 0x39170, symSize: 0xA0 }
  - { offset: 0x263573, size: 0x8, addend: 0x0, symName: __ZN5Eigen12DenseStorageIfLin1ELin1ELin1ELi1EE6resizeElll, symObjAddr: 0x1BFE0, symBinAddr: 0x39210, symSize: 0x90 }
  - { offset: 0x2636C7, size: 0x8, addend: 0x0, symName: __ZNK7facesdk18FaceDetectorRetinaIN9inference18InferenceRunnerORTEE14decodeLocationERKNSt3__16vectorIfNS4_9allocatorIfEEEERN5Eigen6MatrixIfLin1ELin1ELi0ELin1ELin1EEE, symObjAddr: 0x195A4, symBinAddr: 0x36890, symSize: 0x5B0 }
  - { offset: 0x265C2C, size: 0x8, addend: 0x0, symName: __ZNSt3__16vectorIN2cv5Rect_IdEENS_9allocatorIS3_EEE12emplace_backIJS3_EEERS3_DpOT_, symObjAddr: 0x19B54, symBinAddr: 0x36E40, symSize: 0x1B8 }
  - { offset: 0x2660EA, size: 0x8, addend: 0x0, symName: __ZNSt3__16vectorIN2cv5Rect_IiEENS_9allocatorIS3_EEE9push_backB8ne180100ERKS3_, symObjAddr: 0x19D0C, symBinAddr: 0x36FF8, symSize: 0x19C }
  - { offset: 0x26613D, size: 0x8, addend: 0x0, symName: __ZNSt3__16vectorIN2cv5Rect_IiEENS_9allocatorIS3_EEE9push_backB8ne180100ERKS3_, symObjAddr: 0x19D0C, symBinAddr: 0x36FF8, symSize: 0x19C }
  - { offset: 0x266646, size: 0x8, addend: 0x0, symName: __ZNK7facesdk18FaceDetectorRetinaIN9inference18InferenceRunnerORTEE15decodeLandmarksERKNSt3__16vectorIfNS4_9allocatorIfEEEERN5Eigen6MatrixIfLin1ELin1ELi0ELin1ELin1EEE, symObjAddr: 0x19EA8, symBinAddr: 0x37194, symSize: 0x578 }
  - { offset: 0x266651, size: 0x8, addend: 0x0, symName: __ZNK7facesdk18FaceDetectorRetinaIN9inference18InferenceRunnerORTEE15decodeLandmarksERKNSt3__16vectorIfNS4_9allocatorIfEEEERN5Eigen6MatrixIfLin1ELin1ELi0ELin1ELin1EEE, symObjAddr: 0x19EA8, symBinAddr: 0x37194, symSize: 0x578 }
  - { offset: 0x266D3C, size: 0x8, addend: 0x0, symName: __ZNSt3__16vectorINS0_IN2cv6Point_IiEENS_9allocatorIS3_EEEENS4_IS6_EEE21__push_back_slow_pathIRKS6_EEPS6_OT_, symObjAddr: 0x1CC7C, symBinAddr: 0x39DE0, symSize: 0x2B0 }
  - { offset: 0x26776A, size: 0x8, addend: 0x0, symName: __ZNSt3__16vectorINS0_IfNS_9allocatorIfEEEENS1_IS3_EEE21__push_back_slow_pathIRKS3_EEPS3_OT_, symObjAddr: 0x1CFAC, symBinAddr: 0x3A090, symSize: 0x20C }
  - { offset: 0x268201, size: 0x8, addend: 0x0, symName: __ZNSt3__16vectorINS0_IN2cv6Point_IiEENS_9allocatorIS3_EEEENS4_IS6_EEE21__push_back_slow_pathIRKS6_EEPS6_OT_, symObjAddr: 0x1CC7C, symBinAddr: 0x39DE0, symSize: 0x2B0 }
  - { offset: 0x2682B4, size: 0x8, addend: 0x0, symName: __ZNSt3__16vectorIN2cv3MatENS_9allocatorIS2_EEED1B8ne180100Ev, symObjAddr: 0x1A420, symBinAddr: 0x3770C, symSize: 0x58 }
  - { offset: 0x268447, size: 0x8, addend: 0x0, symName: __ZN7facesdk18FaceDetectorRetinaIN9inference18InferenceRunnerORTEED1Ev, symObjAddr: 0x188DC, symBinAddr: 0x35BC8, symSize: 0xC8 }
  - { offset: 0x268B92, size: 0x8, addend: 0x0, symName: __ZN7facesdk18FaceDetectorRetinaIN9inference18InferenceRunnerORTEED0Ev, symObjAddr: 0x189A4, symBinAddr: 0x35C90, symSize: 0xC8 }
  - { offset: 0x269310, size: 0x8, addend: 0x0, symName: __ZNSt3__16vectorINS0_IiNS_9allocatorIiEEEENS1_IS3_EEEC2ERKS5_, symObjAddr: 0x18BA0, symBinAddr: 0x35E8C, symSize: 0xD4 }
  - { offset: 0x2696A7, size: 0x8, addend: 0x0, symName: __ZNSt3__16vectorINS0_IiNS_9allocatorIiEEEENS1_IS3_EEEC2ERKS5_.cold.1, symObjAddr: 0x200CC, symBinAddr: 0xF4D28C, symSize: 0x58 }
  - { offset: 0x269B81, size: 0x8, addend: 0x0, symName: __ZNSt3__16vectorIN2cv3MatENS_9allocatorIS2_EEE18__assign_with_sizeB8ne180100IPKS2_S8_EEvT_T0_l, symObjAddr: 0x1A48C, symBinAddr: 0x37764, symSize: 0x284 }
  - { offset: 0x26A146, size: 0x8, addend: 0x0, symName: __ZNSt3__16vectorIN2cv3MatENS_9allocatorIS2_EEE18__assign_with_sizeB8ne180100IPKS2_S8_EEvT_T0_l, symObjAddr: 0x1A48C, symBinAddr: 0x37764, symSize: 0x284 }
  - { offset: 0x26AC60, size: 0x8, addend: 0x0, symName: __ZN9inference18InferenceRunnerORT3runIfffEEbmRKNSt3__16vectorINS3_IT_NS2_9allocatorIS4_EEEENS5_IS7_EEEERKNS3_INS3_IT0_NS5_ISC_EEEENS5_ISE_EEEERNS3_INS3_IT1_NS5_ISJ_EEEENS5_ISL_EEEE, symObjAddr: 0x1A890, symBinAddr: 0x37AE8, symSize: 0x444 }
  - { offset: 0x26C871, size: 0x8, addend: 0x0, symName: __ZN9inference15InferenceRunnerINS_18InferenceRunnerORTEE3runIffEEbmRKNSt3__16vectorINS5_IT_NS4_9allocatorIS6_EEEENS7_IS9_EEEERNS5_INS5_IT0_NS7_ISE_EEEENS7_ISG_EEEE.cold.1, symObjAddr: 0x20124, symBinAddr: 0xF4D2E4, symSize: 0x48 }
  - { offset: 0x26ED34, size: 0x8, addend: 0x0, symName: __ZNSt3__135__uninitialized_allocator_copy_implB8ne180100INS_9allocatorINS_6vectorIfNS1_IfEEEEEEPKS4_S7_PS4_EET2_RT_T0_T1_S9_, symObjAddr: 0x1A724, symBinAddr: 0x379E8, symSize: 0x100 }
  - { offset: 0x26F55E, size: 0x8, addend: 0x0, symName: __ZNSt3__16vectorIN3Ort5ValueENS_9allocatorIS2_EEE24__emplace_back_slow_pathIJS2_EEEPS2_DpOT_, symObjAddr: 0x1B5A0, symBinAddr: 0x387F8, symSize: 0x194 }
  - { offset: 0x26FB8C, size: 0x8, addend: 0x0, symName: __ZN9inference18InferenceRunnerORT3runIfEEbRNSt3__16vectorIN3Ort5ValueENS2_9allocatorIS5_EEEERNS3_INS3_IT_NS6_ISA_EEEENS6_ISC_EEEE, symObjAddr: 0x1ACD4, symBinAddr: 0x37F2C, symSize: 0x670 }
  - { offset: 0x2715D8, size: 0x8, addend: 0x0, symName: __ZNSt3__16vectorIN3Ort5ValueENS_9allocatorIS2_EEED1B8ne180100Ev, symObjAddr: 0x1B344, symBinAddr: 0x3859C, symSize: 0x64 }
  - { offset: 0x2720E9, size: 0x8, addend: 0x0, symName: __ZNSt3__16vectorIPKcNS_9allocatorIS2_EEE8__appendEmRKS2_, symObjAddr: 0x1B748, symBinAddr: 0x3898C, symSize: 0x25C }
  - { offset: 0x27260E, size: 0x8, addend: 0x0, symName: __ZNSt3__16vectorIN3Ort5ValueENS_9allocatorIS2_EEE7reserveEm, symObjAddr: 0x1B9B8, symBinAddr: 0x38BE8, symSize: 0x16C }
  - { offset: 0x272ABA, size: 0x8, addend: 0x0, symName: __ZNSt3__16vectorIN3Ort5ValueENS_9allocatorIS2_EEE24__emplace_back_slow_pathIJDnEEEPS2_DpOT_, symObjAddr: 0x1BB24, symBinAddr: 0x38D54, symSize: 0x19C }
  - { offset: 0x273079, size: 0x8, addend: 0x0, symName: __ZNSt3__16vectorINS0_IfNS_9allocatorIfEEEENS1_IS3_EEE24__emplace_back_slow_pathIJRPfS7_EEEPS3_DpOT_, symObjAddr: 0x1BCC0, symBinAddr: 0x38EF0, symSize: 0x214 }
  - { offset: 0x273CEE, size: 0x8, addend: 0x0, symName: __ZN3Ort9ExceptionD1Ev, symObjAddr: 0x1B4E4, symBinAddr: 0x3873C, symSize: 0x4C }
  - { offset: 0x273E5E, size: 0x8, addend: 0x0, symName: __ZN3Ort9ExceptionD0Ev, symObjAddr: 0x1B530, symBinAddr: 0x38788, symSize: 0x54 }
  - { offset: 0x273FCD, size: 0x8, addend: 0x0, symName: __ZNK3Ort9Exception4whatEv, symObjAddr: 0x1B584, symBinAddr: 0x387DC, symSize: 0x1C }
  - { offset: 0x274263, size: 0x8, addend: 0x0, symName: __ZNSt3__16vectorIPKcNS_9allocatorIS2_EEE8__appendEmRKS2_, symObjAddr: 0x1B748, symBinAddr: 0x3898C, symSize: 0x25C }
  - { offset: 0x274630, size: 0x8, addend: 0x0, symName: __ZNSt3__16vectorIN3Ort5ValueENS_9allocatorIS2_EEE7reserveEm, symObjAddr: 0x1B9B8, symBinAddr: 0x38BE8, symSize: 0x16C }
  - { offset: 0x274962, size: 0x8, addend: 0x0, symName: __ZNSt3__114__split_bufferINS_6vectorIfNS_9allocatorIfEEEERNS2_IS4_EEED1Ev, symObjAddr: 0x1BED4, symBinAddr: 0x39104, symSize: 0x6C }
  - { offset: 0x276113, size: 0x8, addend: 0x0, symName: __ZNSt3__16vectorINS0_IfNS_9allocatorIfEEEENS1_IS3_EEE21__push_back_slow_pathIRKS3_EEPS3_OT_, symObjAddr: 0x1CFAC, symBinAddr: 0x3A090, symSize: 0x20C }
  - { offset: 0x2762B7, size: 0x8, addend: 0x0, symName: __ZN7facesdk10ClassifierIN9inference18InferenceRunnerORTEhfED1Ev, symObjAddr: 0x1D1B8, symBinAddr: 0x3A29C, symSize: 0x5C }
  - { offset: 0x276441, size: 0x8, addend: 0x0, symName: __ZN7facesdk10ClassifierIN9inference18InferenceRunnerORTEhfED0Ev, symObjAddr: 0x1D214, symBinAddr: 0x3A2F8, symSize: 0x5C }
  - { offset: 0x276AC5, size: 0x8, addend: 0x0, symName: __ZNK7facesdk10ClassifierIN9inference18InferenceRunnerORTEhfE3runERKN2cv3MatERKNSt3__16vectorINS4_6Point_IiEENS8_9allocatorISB_EEEERNS9_IfNSC_IfEEEE, symObjAddr: 0x1D270, symBinAddr: 0x3A354, symSize: 0x35C }
  - { offset: 0x277DDE, size: 0x8, addend: 0x0, symName: __ZN9inference15InferenceRunnerINS_18InferenceRunnerORTEE3runIhfEEbmRKNSt3__16vectorINS5_IT_NS4_9allocatorIS6_EEEENS7_IS9_EEEERNS5_INS5_IT0_NS7_ISE_EEEENS7_ISG_EEEE, symObjAddr: 0x1DC58, symBinAddr: 0x3AD3C, symSize: 0xAC }
  - { offset: 0x2781F7, size: 0x8, addend: 0x0, symName: __ZNSt3__16vectorIfNS_9allocatorIfEEE18__assign_with_sizeB8ne180100INS_11__wrap_iterIPKfEES8_EEvT_T0_l, symObjAddr: 0x1E324, symBinAddr: 0x3B328, symSize: 0x148 }
  - { offset: 0x278BE1, size: 0x8, addend: 0x0, symName: __ZNK7facesdk19EyeLandmarkDetectorIN9inference18InferenceRunnerORTEE6detectERKN2cv3MatERNSt3__16vectorINS4_6Point_IiEENS8_9allocatorISB_EEEE, symObjAddr: 0x1E46C, symBinAddr: 0x3B470, symSize: 0x74C }
  - { offset: 0x27947E, size: 0x8, addend: 0x0, symName: __ZN9inference18InferenceRunnerORT3runIhffEEbmRKNSt3__16vectorINS3_IT_NS2_9allocatorIS4_EEEENS5_IS7_EEEERKNS3_INS3_IT0_NS5_ISC_EEEENS5_ISE_EEEERNS3_INS3_IT1_NS5_ISJ_EEEENS5_ISL_EEEE, symObjAddr: 0x1DEE0, symBinAddr: 0x3AEE4, symSize: 0x444 }
  - { offset: 0x27B70A, size: 0x8, addend: 0x0, symName: __ZNK7facesdk19EyeLandmarkDetectorIN9inference18InferenceRunnerORTEE6detectERKN2cv3MatERNSt3__16vectorINS4_6Point_IiEENS8_9allocatorISB_EEEE, symObjAddr: 0x1E46C, symBinAddr: 0x3B470, symSize: 0x74C }
  - { offset: 0x27D589, size: 0x8, addend: 0x0, symName: __ZN7facesdk19EyeLandmarkDetectorIN9inference18InferenceRunnerORTEED1Ev, symObjAddr: 0x1EBB8, symBinAddr: 0x3BBBC, symSize: 0x40 }
  - { offset: 0x27D66B, size: 0x8, addend: 0x0, symName: __ZN7facesdk19EyeLandmarkDetectorIN9inference18InferenceRunnerORTEED0Ev, symObjAddr: 0x1EBF8, symBinAddr: 0x3BBFC, symSize: 0x44 }
  - { offset: 0x27FCA9, size: 0x8, addend: 0x0, symName: _OUTLINED_FUNCTION_0, symObjAddr: 0x20234, symBinAddr: 0x3BE4C, symSize: 0xC }
  - { offset: 0x27FCC1, size: 0x8, addend: 0x0, symName: _OUTLINED_FUNCTION_1, symObjAddr: 0x20240, symBinAddr: 0x3BE58, symSize: 0xC }
  - { offset: 0x27FCD9, size: 0x8, addend: 0x0, symName: _OUTLINED_FUNCTION_2, symObjAddr: 0x2024C, symBinAddr: 0x3BE64, symSize: 0x10 }
  - { offset: 0x27FCF1, size: 0x8, addend: 0x0, symName: _OUTLINED_FUNCTION_4, symObjAddr: 0x20268, symBinAddr: 0x3BE74, symSize: 0x18 }
  - { offset: 0x27FD09, size: 0x8, addend: 0x0, symName: _OUTLINED_FUNCTION_5, symObjAddr: 0x20280, symBinAddr: 0x3BE8C, symSize: 0x8 }
  - { offset: 0x27FD21, size: 0x8, addend: 0x0, symName: _OUTLINED_FUNCTION_6, symObjAddr: 0x20288, symBinAddr: 0x3BE94, symSize: 0x8 }
  - { offset: 0x27FD39, size: 0x8, addend: 0x0, symName: _OUTLINED_FUNCTION_7, symObjAddr: 0x20290, symBinAddr: 0x3BE9C, symSize: 0xC }
  - { offset: 0x27FD51, size: 0x8, addend: 0x0, symName: _OUTLINED_FUNCTION_8, symObjAddr: 0x2029C, symBinAddr: 0x3BEA8, symSize: 0xC }
  - { offset: 0x2FEE9D, size: 0x8, addend: 0x0, symName: __ZN5Eigen7umeyamaINS_6MatrixIfLi2ELi5ELi0ELi2ELi5EEES2_EENS_8internal29umeyama_transform_matrix_typeIT_T0_E4typeERKNS_10MatrixBaseIS5_EERKNS9_IS6_EEb, symObjAddr: 0x4C54, symBinAddr: 0x3ECF0, symSize: 0x4BC }
  - { offset: 0x3326B6, size: 0x8, addend: 0x0, symName: __ZNSt3__116__throw_bad_castB8ne180100Ev, symObjAddr: 0x7DD8, symBinAddr: 0x41638, symSize: 0x28 }
  - { offset: 0x33DD72, size: 0x8, addend: 0x0, symName: __ZN7facesdk8readFileERKNSt3__112basic_stringIcNS0_11char_traitsIcEENS0_9allocatorIcEEEE, symObjAddr: 0x48, symBinAddr: 0x3C090, symSize: 0x2B8 }
  - { offset: 0x33E335, size: 0x8, addend: 0x0, symName: __ZN7facesdk19serializeCurrResultERNS_15LivenessSessionEPKNS_12LFrameResultE, symObjAddr: 0x5BC, symBinAddr: 0x3C4BC, symSize: 0x294 }
  - { offset: 0x33ECE5, size: 0x8, addend: 0x0, symName: __ZN7facesdk16serializeSessionERNS_15LivenessSessionE, symObjAddr: 0x850, symBinAddr: 0x3C750, symSize: 0x3D0 }
  - { offset: 0x33FAF3, size: 0x8, addend: 0x0, symName: __ZN7facesdk10rectToJsonIiEEN8nlohmann16json_abi_v3_12_010basic_jsonINSt3__13mapENS4_6vectorENS4_12basic_stringIcNS4_11char_traitsIcEENS4_9allocatorIcEEEEbxydSA_NS2_14adl_serializerENS6_IhNSA_IhEEEEvEERKN2cv5Rect_IT_EE, symObjAddr: 0xD40, symBinAddr: 0x3CB20, symSize: 0x1F0 }
  - { offset: 0x3404FA, size: 0x8, addend: 0x0, symName: __ZN7facesdk17generateDebugInfoERKNS_12LFrameResultERKNS_15LivenessSessionE, symObjAddr: 0xF30, symBinAddr: 0x3CD10, symSize: 0x1D8 }
  - { offset: 0x340D1F, size: 0x8, addend: 0x0, symName: __ZN7facesdk17frameResultToJsonERKNS_12LFrameResultERKNS_17FrameSavingParamsE, symObjAddr: 0x13FC, symBinAddr: 0x3CEE8, symSize: 0x6A8 }
  - { offset: 0x34338B, size: 0x8, addend: 0x0, symName: __ZN7facesdk13ellipseToJsonERKNS_8LEllipseE, symObjAddr: 0x1AA4, symBinAddr: 0x3D590, symSize: 0x208 }
  - { offset: 0x343DA5, size: 0x8, addend: 0x0, symName: __ZN7facesdk11pointToJsonIiEEN8nlohmann16json_abi_v3_12_010basic_jsonINSt3__13mapENS4_6vectorENS4_12basic_stringIcNS4_11char_traitsIcEENS4_9allocatorIcEEEEbxydSA_NS2_14adl_serializerENS6_IhNSA_IhEEEEvEERKN2cv6Point_IT_EE, symObjAddr: 0x1CAC, symBinAddr: 0x3D798, symSize: 0x110 }
  - { offset: 0x34437C, size: 0x8, addend: 0x0, symName: __ZN7facesdk10faceToJsonERKNS_5LFaceE, symObjAddr: 0x1F14, symBinAddr: 0x3D8A8, symSize: 0x338 }
  - { offset: 0x344D4D, size: 0x8, addend: 0x0, symName: __ZN7facesdk21faceOrientationToJsonENS_15LFaceOrienationE, symObjAddr: 0x224C, symBinAddr: 0x3DBE0, symSize: 0x198 }
  - { offset: 0x3454F7, size: 0x8, addend: 0x0, symName: __ZN7facesdk9saveImageERKN2cv3MatERKNSt3__112basic_stringIcNS4_11char_traitsIcEENS4_9allocatorIcEEEERKNS4_6vectorIiNS8_IiEEEE, symObjAddr: 0x23E4, symBinAddr: 0x3DD78, symSize: 0x6C }
  - { offset: 0x34573C, size: 0x8, addend: 0x0, symName: __ZN7facesdk7calcFPSERKNS_15LivenessSessionE, symObjAddr: 0x2B90, symBinAddr: 0x3DDE4, symSize: 0x124 }
  - { offset: 0x34586B, size: 0x8, addend: 0x0, symName: __ZN7facesdk6centerERKN2cv5Rect_IiEE, symObjAddr: 0x2D14, symBinAddr: 0x3DF08, symSize: 0x1C }
  - { offset: 0x345889, size: 0x8, addend: 0x0, symName: __ZN7facesdk6centerERKN2cv5Rect_IiEE, symObjAddr: 0x2D14, symBinAddr: 0x3DF08, symSize: 0x1C }
  - { offset: 0x3458FE, size: 0x8, addend: 0x0, symName: __ZN7facesdk15saveImageBase64ERKN2cv3MatERKNSt3__112basic_stringIcNS4_11char_traitsIcEENS4_9allocatorIcEEEERKNS4_6vectorIiNS8_IiEEEE, symObjAddr: 0x2E80, symBinAddr: 0x3DF24, symSize: 0xF8 }
  - { offset: 0x345E4C, size: 0x8, addend: 0x0, symName: __ZN7facesdk11rotateImageERKN2cv3MatEi, symObjAddr: 0x2FB8, symBinAddr: 0x3E05C, symSize: 0xF8 }
  - { offset: 0x34615A, size: 0x8, addend: 0x0, symName: __ZN7facesdk11createFrameEPvN2cv5Size_IiEEii, symObjAddr: 0x30B0, symBinAddr: 0x3E154, symSize: 0xF8 }
  - { offset: 0x3463C7, size: 0x8, addend: 0x0, symName: __ZN7facesdk17findBestFaceIndexERKNSt3__16vectorIN2cv5Rect_IiEENS0_9allocatorIS4_EEEERKNS2_5Size_IiEE, symObjAddr: 0x328C, symBinAddr: 0x3E24C, symSize: 0x170 }
  - { offset: 0x34645B, size: 0x8, addend: 0x0, symName: __ZN7facesdk17findBestFaceIndexERKNSt3__16vectorIN2cv5Rect_IiEENS0_9allocatorIS4_EEEERKNS2_5Size_IiEE, symObjAddr: 0x328C, symBinAddr: 0x3E24C, symSize: 0x170 }
  - { offset: 0x346869, size: 0x8, addend: 0x0, symName: __ZN7facesdk11calcFaceBoxERKN2cv5Size_IiEERKNS0_6Point_IiEERKNS_15LStageConstantsE, symObjAddr: 0x3B7C, symBinAddr: 0x3E3F4, symSize: 0x28 }
  - { offset: 0x346917, size: 0x8, addend: 0x0, symName: __ZN7facesdk11calcEllipseERKN2cv5Rect_IiEERKNS0_6Point_IiEERKNS_15LStageConstantsE, symObjAddr: 0x3BA4, symBinAddr: 0x3E41C, symSize: 0x20 }
  - { offset: 0x3469C2, size: 0x8, addend: 0x0, symName: __ZN7facesdk16getHeightOnFrameEfiff, symObjAddr: 0x3BFC, symBinAddr: 0x3E43C, symSize: 0x8C }
  - { offset: 0x346B41, size: 0x8, addend: 0x0, symName: __ZN7facesdk8calcBallERKNS_14LSessionParamsENS_15LFaceOrienationE, symObjAddr: 0x4394, symBinAddr: 0x3E4C8, symSize: 0x44 }
  - { offset: 0x346C2D, size: 0x8, addend: 0x0, symName: __ZN7facesdk15calcCroppedFaceERKN2cv3MatERKNSt3__16vectorINS0_6Point_IiEENS4_9allocatorIS7_EEEERKNS5_INS6_IdEENS8_ISD_EEEERKNS0_5Size_IiEE, symObjAddr: 0x4470, symBinAddr: 0x3E50C, symSize: 0x7E4 }
  - { offset: 0x34814C, size: 0x8, addend: 0x0, symName: __ZN7facesdk15calcCroppedFaceERKN2cv3MatERKNSt3__16vectorINS0_6Point_IiEENS4_9allocatorIS7_EEEE, symObjAddr: 0x5110, symBinAddr: 0x3F1AC, symSize: 0x184 }
  - { offset: 0x3487D0, size: 0x8, addend: 0x0, symName: __ZN7facesdk12generateGuidEv, symObjAddr: 0x5294, symBinAddr: 0x3F330, symSize: 0x64 }
  - { offset: 0x348828, size: 0x8, addend: 0x0, symName: __ZN7facesdk23generateTargetExposuresEjjjj, symObjAddr: 0x52F8, symBinAddr: 0x3F394, symSize: 0x160 }
  - { offset: 0x348C15, size: 0x8, addend: 0x0, symName: __ZN7facesdk20generateRandomNumberIiEET_S1_S1_, symObjAddr: 0x5458, symBinAddr: 0x3F4F4, symSize: 0x114 }
  - { offset: 0x3492C0, size: 0x8, addend: 0x0, symName: __ZN7facesdk20generateRandomNumberIjEET_S1_S1_, symObjAddr: 0x556C, symBinAddr: 0x3F608, symSize: 0x114 }
  - { offset: 0x34996B, size: 0x8, addend: 0x0, symName: __ZN7facesdk16correctReadinessEf, symObjAddr: 0x585C, symBinAddr: 0x3F71C, symSize: 0x8C }
  - { offset: 0x3499CC, size: 0x8, addend: 0x0, symName: __ZN7facesdk18calcLandmarkHeightERKNS_5LFaceE, symObjAddr: 0x58E8, symBinAddr: 0x3F7A8, symSize: 0xBC }
  - { offset: 0x349B48, size: 0x8, addend: 0x0, symName: __ZN7facesdk17calcCurrentSectorERKN2cv6Point_IiEERKNS_14LSessionParamsEj, symObjAddr: 0x59A4, symBinAddr: 0x3F864, symSize: 0xFC }
  - { offset: 0x349C54, size: 0x8, addend: 0x0, symName: __ZN7facesdk14calcFaceHeightERKNSt3__16vectorIN2cv6Point_IiEENS0_9allocatorIS4_EEEE, symObjAddr: 0x5AA0, symBinAddr: 0x3F960, symSize: 0xA0 }
  - { offset: 0x349CCD, size: 0x8, addend: 0x0, symName: __ZN7facesdk14calcFaceHeightERKNSt3__16vectorIN2cv6Point_IiEENS0_9allocatorIS4_EEEE, symObjAddr: 0x5AA0, symBinAddr: 0x3F960, symSize: 0xA0 }
  - { offset: 0x349EC8, size: 0x8, addend: 0x0, symName: __ZN7facesdk17serializeDepthMapERKN2cv3MatERKNS0_5Size_IiEERKNS0_5Rect_IiEEjb, symObjAddr: 0x5B40, symBinAddr: 0x3FA00, symSize: 0x498 }
  - { offset: 0x34B976, size: 0x8, addend: 0x0, symName: __ZN7facesdk12compressDataEPKhmRKNSt3__112basic_stringIcNS2_11char_traitsIcEENS2_9allocatorIcEEEE, symObjAddr: 0x5FD8, symBinAddr: 0x3FE98, symSize: 0x148 }
  - { offset: 0x34BE0A, size: 0x8, addend: 0x0, symName: __ZN7facesdk13calcSharpnessERKN2cv3MatE, symObjAddr: 0x66A8, symBinAddr: 0x40148, symSize: 0x184 }
  - { offset: 0x34C325, size: 0x8, addend: 0x0, symName: __ZN7facesdk7isEmptyEPKc, symObjAddr: 0x682C, symBinAddr: 0x402CC, symSize: 0x1C }
  - { offset: 0x34C354, size: 0x8, addend: 0x0, symName: __ZN7facesdk21generateFakePublicKeyEv, symObjAddr: 0x6848, symBinAddr: 0x402E8, symSize: 0x1CC }
  - { offset: 0x34CF05, size: 0x8, addend: 0x0, symName: __ZN7facesdk20generateRandomNumberIhEET_S1_S1_, symObjAddr: 0xF118, symBinAddr: 0x42C3C, symSize: 0x118 }
  - { offset: 0x34D5AF, size: 0x8, addend: 0x0, symName: __ZN7facesdk10calcSHA256ERKNSt3__16vectorIhNS0_9allocatorIhEEEE, symObjAddr: 0x6A14, symBinAddr: 0x404B4, symSize: 0xD8 }
  - { offset: 0x34D9A0, size: 0x8, addend: 0x0, symName: __ZN7facesdk14buildHistogramERKN2cv3MatES3_, symObjAddr: 0x6AEC, symBinAddr: 0x4058C, symSize: 0x1B4 }
  - { offset: 0x34DF5E, size: 0x8, addend: 0x0, symName: __ZN7facesdk27calcInjectionCheckPatchRectEN6common4type4spanIKN2cv6Point_IiEELm18446744073709551615EEEff, symObjAddr: 0x6CA0, symBinAddr: 0x40740, symSize: 0xA4 }
  - { offset: 0x34E0A0, size: 0x8, addend: 0x0, symName: __ZN7facesdk11calcEyeRectERKN2cv6Point_IiEEi, symObjAddr: 0x6D44, symBinAddr: 0x407E4, symSize: 0x20 }
  - { offset: 0x34E130, size: 0x8, addend: 0x0, symName: __ZN7facesdk18calcEyeAspectRatioEN6common4type4spanIKN2cv6Point_IiEELm18446744073709551615EEE, symObjAddr: 0x6D64, symBinAddr: 0x40804, symSize: 0x64 }
  - { offset: 0x34E1C5, size: 0x8, addend: 0x0, symName: __ZN7facesdk8getValueERKN8nlohmann16json_abi_v3_12_010basic_jsonINSt3__13mapENS3_6vectorENS3_12basic_stringIcNS3_11char_traitsIcEENS3_9allocatorIcEEEEbxydS9_NS1_14adl_serializerENS5_IhNS9_IhEEEEvEERKSB_SH_, symObjAddr: 0x6DC8, symBinAddr: 0x40868, symSize: 0x60 }
  - { offset: 0x35C555, size: 0x8, addend: 0x0, symName: __ZNSt3__124uniform_int_distributionIiEclINS_23mersenne_twister_engineIjLm32ELm624ELm397ELm31ELj2567483615ELm11ELj4294967295ELm7ELj2636928640ELm15ELj4022730752ELm18ELj1812433253EEEEEiRT_RKNS1_10param_typeE, symObjAddr: 0xE4A4, symBinAddr: 0x42880, symSize: 0x1A0 }
  - { offset: 0x35C5F6, size: 0x8, addend: 0x0, symName: __ZNSt3__124uniform_int_distributionIiEclINS_23mersenne_twister_engineIjLm32ELm624ELm397ELm31ELj2567483615ELm11ELj4294967295ELm7ELj2636928640ELm15ELj4022730752ELm18ELj1812433253EEEEEiRT_RKNS1_10param_typeE, symObjAddr: 0xE4A4, symBinAddr: 0x42880, symSize: 0x1A0 }
  - { offset: 0x35CA1B, size: 0x8, addend: 0x0, symName: __ZNSt3__124uniform_int_distributionIhEclINS_23mersenne_twister_engineIjLm32ELm624ELm397ELm31ELj2567483615ELm11ELj4294967295ELm7ELj2636928640ELm15ELj4022730752ELm18ELj1812433253EEEEEhRT_RKNS1_10param_typeE, symObjAddr: 0xF230, symBinAddr: 0x42D54, symSize: 0x1AC }
  - { offset: 0x35CABD, size: 0x8, addend: 0x0, symName: __ZNSt3__124uniform_int_distributionIhEclINS_23mersenne_twister_engineIjLm32ELm624ELm397ELm31ELj2567483615ELm11ELj4294967295ELm7ELj2636928640ELm15ELj4022730752ELm18ELj1812433253EEEEEhRT_RKNS1_10param_typeE, symObjAddr: 0xF230, symBinAddr: 0x42D54, symSize: 0x1AC }
  - { offset: 0x35CCF6, size: 0x8, addend: 0x0, symName: __ZNK7facesdk15LFaceOrienationltES0_, symObjAddr: 0x0, symBinAddr: 0x3C048, symSize: 0x48 }
  - { offset: 0x35D26E, size: 0x8, addend: 0x0, symName: __ZNSt3__113basic_filebufIcNS_11char_traitsIcEEEC2Ev, symObjAddr: 0x8C40, symBinAddr: 0x4180C, symSize: 0x138 }
  - { offset: 0x35D34A, size: 0x8, addend: 0x0, symName: __ZNSt3__114basic_ifstreamIcNS_11char_traitsIcEEEC1ERKNS_12basic_stringIcS2_NS_9allocatorIcEEEEj, symObjAddr: 0x300, symBinAddr: 0x3C348, symSize: 0x114 }
  - { offset: 0x35D547, size: 0x8, addend: 0x0, symName: __ZNSt3__113basic_filebufIcNS_11char_traitsIcEEE4swapERS3_, symObjAddr: 0x8EB0, symBinAddr: 0x41A7C, symSize: 0x3A0 }
  - { offset: 0x35DB5B, size: 0x8, addend: 0x0, symName: __ZNSt3__113basic_filebufIcNS_11char_traitsIcEEED2Ev, symObjAddr: 0x7194, symBinAddr: 0x409F4, symSize: 0xBC }
  - { offset: 0x35DC65, size: 0x8, addend: 0x0, symName: __ZNSt3__16vectorIhNS_9allocatorIhEEE20__init_with_sentinelB8ne180100INS_19istreambuf_iteratorIcNS_11char_traitsIcEEEES8_EEvT_T0_, symObjAddr: 0x9250, symBinAddr: 0x41E1C, symSize: 0x2CC }
  - { offset: 0x35E2DD, size: 0x8, addend: 0x0, symName: __ZNSt3__114basic_ifstreamIcNS_11char_traitsIcEEED1Ev, symObjAddr: 0x414, symBinAddr: 0x3C45C, symSize: 0x60 }
  - { offset: 0x35E421, size: 0x8, addend: 0x0, symName: __ZNSt3__113basic_filebufIcNS_11char_traitsIcEEE4openEPKcj, symObjAddr: 0x8D78, symBinAddr: 0x41944, symSize: 0x138 }
  - { offset: 0x363F84, size: 0x8, addend: 0x0, symName: __ZNSt3__16vectorIN8nlohmann16json_abi_v3_12_010basic_jsonINS_3mapES0_NS_12basic_stringIcNS_11char_traitsIcEENS_9allocatorIcEEEEbxydS8_NS2_14adl_serializerENS0_IhNS8_IhEEEEvEENS8_ISE_EEEC2INS_11__wrap_iterIPKiEELi0EEET_SM_, symObjAddr: 0xCDF0, symBinAddr: 0x420E8, symSize: 0xE0 }
  - { offset: 0x3660BD, size: 0x8, addend: 0x0, symName: __ZN6common6base647EncoderD1Ev, symObjAddr: 0x2F78, symBinAddr: 0x3E01C, symSize: 0x40 }
  - { offset: 0x366577, size: 0x8, addend: 0x0, symName: __ZN2cv7MatExprD1Ev, symObjAddr: 0x35D8, symBinAddr: 0x3E3BC, symSize: 0x38 }
  - { offset: 0x369AFD, size: 0x8, addend: 0x0, symName: __ZN5Eigen9JacobiSVDINS_6MatrixIfLi2ELi2ELi0ELi2ELi2EEELi2EE7computeERKS2_j, symObjAddr: 0xDDEC, symBinAddr: 0x421C8, symSize: 0x6B8 }
  - { offset: 0x36D239, size: 0x8, addend: 0x0, symName: __ZN8nlohmann16json_abi_v3_12_010basic_jsonINSt3__13mapENS2_6vectorENS2_12basic_stringIcNS2_11char_traitsIcEENS2_9allocatorIcEEEEbxydS8_NS0_14adl_serializerENS4_IhNS8_IhEEEEvE6binaryERKSD_, symObjAddr: 0x6120, symBinAddr: 0x3FFE0, symSize: 0xDC }
  - { offset: 0x36DD16, size: 0x8, addend: 0x0, symName: __ZNKSt3__111__copy_loopINS_17_ClassicAlgPolicyEEclB8ne180100IPhS4_NS_20back_insert_iteratorINS_6vectorIhNS_9allocatorIhEEEEEEEENS_4pairIT_T1_EESC_T0_SD_, symObjAddr: 0xECA4, symBinAddr: 0x42A20, symSize: 0x21C }
  - { offset: 0x36E5D7, size: 0x8, addend: 0x0, symName: __ZNSt3__119basic_ostringstreamIcNS_11char_traitsIcEENS_9allocatorIcEEED1Ev, symObjAddr: 0x661C, symBinAddr: 0x400BC, symSize: 0x8C }
  - { offset: 0x36FB20, size: 0x8, addend: 0x0, symName: __ZTv0_n24_NSt3__114basic_ifstreamIcNS_11char_traitsIcEEED1Ev, symObjAddr: 0x7068, symBinAddr: 0x408C8, symSize: 0x60 }
  - { offset: 0x36FBAA, size: 0x8, addend: 0x0, symName: __ZNSt3__114basic_ifstreamIcNS_11char_traitsIcEEED0Ev, symObjAddr: 0x70C8, symBinAddr: 0x40928, symSize: 0x60 }
  - { offset: 0x36FC53, size: 0x8, addend: 0x0, symName: __ZTv0_n24_NSt3__114basic_ifstreamIcNS_11char_traitsIcEEED0Ev, symObjAddr: 0x7128, symBinAddr: 0x40988, symSize: 0x68 }
  - { offset: 0x36FCF9, size: 0x8, addend: 0x0, symName: __ZNSt3__113basic_filebufIcNS_11char_traitsIcEEED1Ev, symObjAddr: 0x7190, symBinAddr: 0x409F0, symSize: 0x4 }
  - { offset: 0x36FD1C, size: 0x8, addend: 0x0, symName: __ZNSt3__113basic_filebufIcNS_11char_traitsIcEEED1Ev, symObjAddr: 0x7190, symBinAddr: 0x409F0, symSize: 0x4 }
  - { offset: 0x36FD2F, size: 0x8, addend: 0x0, symName: __ZNSt3__113basic_filebufIcNS_11char_traitsIcEEE4syncEv, symObjAddr: 0x764C, symBinAddr: 0x40EAC, symSize: 0x26C }
  - { offset: 0x36FFEF, size: 0x8, addend: 0x0, symName: __ZNSt3__113basic_filebufIcNS_11char_traitsIcEEE9underflowEv, symObjAddr: 0x78B8, symBinAddr: 0x41118, symSize: 0x2B4 }
  - { offset: 0x36FFFA, size: 0x8, addend: 0x0, symName: __ZNSt3__113basic_filebufIcNS_11char_traitsIcEEED0Ev, symObjAddr: 0x7250, symBinAddr: 0x40AB0, symSize: 0x14 }
  - { offset: 0x3700AA, size: 0x8, addend: 0x0, symName: __ZNSt3__113basic_filebufIcNS_11char_traitsIcEEE5imbueERKNS_6localeE, symObjAddr: 0x7264, symBinAddr: 0x40AC4, symSize: 0xFC }
  - { offset: 0x37017B, size: 0x8, addend: 0x0, symName: __ZNSt3__113basic_filebufIcNS_11char_traitsIcEEE6setbufEPcl, symObjAddr: 0x7360, symBinAddr: 0x40BC0, symSize: 0x120 }
  - { offset: 0x370258, size: 0x8, addend: 0x0, symName: __ZNSt3__113basic_filebufIcNS_11char_traitsIcEEE7seekoffExNS_8ios_base7seekdirEj, symObjAddr: 0x7480, symBinAddr: 0x40CE0, symSize: 0x110 }
  - { offset: 0x3703AF, size: 0x8, addend: 0x0, symName: __ZNSt3__113basic_filebufIcNS_11char_traitsIcEEE7seekposENS_4fposI11__mbstate_tEEj, symObjAddr: 0x7590, symBinAddr: 0x40DF0, symSize: 0xBC }
  - { offset: 0x370410, size: 0x8, addend: 0x0, symName: __ZNSt3__113basic_filebufIcNS_11char_traitsIcEEE7seekposENS_4fposI11__mbstate_tEEj, symObjAddr: 0x7590, symBinAddr: 0x40DF0, symSize: 0xBC }
  - { offset: 0x370689, size: 0x8, addend: 0x0, symName: __ZNSt3__113basic_filebufIcNS_11char_traitsIcEEE9underflowEv, symObjAddr: 0x78B8, symBinAddr: 0x41118, symSize: 0x2B4 }
  - { offset: 0x3709EC, size: 0x8, addend: 0x0, symName: __ZNSt3__113basic_filebufIcNS_11char_traitsIcEEE9pbackfailEi, symObjAddr: 0x7B6C, symBinAddr: 0x413CC, symSize: 0x5C }
  - { offset: 0x370A39, size: 0x8, addend: 0x0, symName: __ZNSt3__113basic_filebufIcNS_11char_traitsIcEEE9pbackfailEi, symObjAddr: 0x7B6C, symBinAddr: 0x413CC, symSize: 0x5C }
  - { offset: 0x370BB7, size: 0x8, addend: 0x0, symName: __ZNSt3__113basic_filebufIcNS_11char_traitsIcEEE8overflowEi, symObjAddr: 0x7BC8, symBinAddr: 0x41428, symSize: 0x210 }
  - { offset: 0x370F6A, size: 0x8, addend: 0x0, symName: __ZTv0_n24_NSt3__119basic_ostringstreamIcNS_11char_traitsIcEENS_9allocatorIcEEED1Ev, symObjAddr: 0x7E00, symBinAddr: 0x41660, symSize: 0x8C }
  - { offset: 0x371110, size: 0x8, addend: 0x0, symName: __ZNSt3__119basic_ostringstreamIcNS_11char_traitsIcEENS_9allocatorIcEEED0Ev, symObjAddr: 0x7E8C, symBinAddr: 0x416EC, symSize: 0x8C }
  - { offset: 0x3712DB, size: 0x8, addend: 0x0, symName: __ZTv0_n24_NSt3__119basic_ostringstreamIcNS_11char_traitsIcEENS_9allocatorIcEEED0Ev, symObjAddr: 0x7F18, symBinAddr: 0x41778, symSize: 0x94 }
  - { offset: 0x37A8E2, size: 0x8, addend: 0x0, symName: _gDataTransfer, symObjAddr: 0x95060, symBinAddr: 0x12D3B60, symSize: 0x0 }
  - { offset: 0x392FFA, size: 0x8, addend: 0x0, symName: _gDataTransfer_global_registrator_obj, symObjAddr: 0x95070, symBinAddr: 0x12D3B70, symSize: 0x0 }
  - { offset: 0x3947C0, size: 0x8, addend: 0x0, symName: __ZNSt3__18weak_ptrIN12datatransfer19DataTransferProcessEED1Ev, symObjAddr: 0x0, symBinAddr: 0x42F00, symSize: 0x2C }
  - { offset: 0x3948B3, size: 0x8, addend: 0x0, symName: __ZN32gDataTransfer_global_registratorD1Ev, symObjAddr: 0x2C, symBinAddr: 0x42F2C, symSize: 0x58 }
  - { offset: 0x394A96, size: 0x8, addend: 0x0, symName: __ZN32gDataTransfer_global_registratorC2Ev, symObjAddr: 0xC8, symBinAddr: 0x42F84, symSize: 0x74 }
  - { offset: 0x394C65, size: 0x8, addend: 0x0, symName: __ZN6common10modularity18ModuleOrchestrator9addModuleIN12datatransfer19DataTransferProcessELb1EEEmRKSt16initializer_listI18eProcessGlCommandsE, symObjAddr: 0x13C, symBinAddr: 0x42FF8, symSize: 0x1D4 }
  - { offset: 0x395619, size: 0x8, addend: 0x0, symName: __ZN6common10modularity18ModuleOrchestrator12moduleObjectIN12datatransfer19DataTransferProcessELb1EEENSt3__18weak_ptrIT_EEv, symObjAddr: 0x310, symBinAddr: 0x431CC, symSize: 0x134 }
  - { offset: 0x396370, size: 0x8, addend: 0x0, symName: __ZNSt3__120__shared_ptr_emplaceIN12datatransfer19DataTransferProcessENS_9allocatorIS2_EEED1Ev, symObjAddr: 0x5AC, symBinAddr: 0x43300, symSize: 0x10 }
  - { offset: 0x396392, size: 0x8, addend: 0x0, symName: __ZNSt3__120__shared_ptr_emplaceIN12datatransfer19DataTransferProcessENS_9allocatorIS2_EEED1Ev, symObjAddr: 0x5AC, symBinAddr: 0x43300, symSize: 0x10 }
  - { offset: 0x3963C8, size: 0x8, addend: 0x0, symName: __ZNSt3__120__shared_ptr_emplaceIN12datatransfer19DataTransferProcessENS_9allocatorIS2_EEED0Ev, symObjAddr: 0x5BC, symBinAddr: 0x43310, symSize: 0x20 }
  - { offset: 0x3964B4, size: 0x8, addend: 0x0, symName: __ZNSt3__120__shared_ptr_emplaceIN12datatransfer19DataTransferProcessENS_9allocatorIS2_EEE16__on_zero_sharedEv, symObjAddr: 0x5DC, symBinAddr: 0x43330, symSize: 0xC }
  - { offset: 0x3964DD, size: 0x8, addend: 0x0, symName: __ZNSt3__120__shared_ptr_emplaceIN12datatransfer19DataTransferProcessENS_9allocatorIS2_EEE16__on_zero_sharedEv, symObjAddr: 0x5DC, symBinAddr: 0x43330, symSize: 0xC }
  - { offset: 0x3964FB, size: 0x8, addend: 0x0, symName: __ZNSt3__120__shared_ptr_emplaceIN12datatransfer19DataTransferProcessENS_9allocatorIS2_EEE16__on_zero_sharedEv, symObjAddr: 0x5DC, symBinAddr: 0x43330, symSize: 0xC }
  - { offset: 0x396519, size: 0x8, addend: 0x0, symName: __ZNSt3__120__shared_ptr_emplaceIN12datatransfer19DataTransferProcessENS_9allocatorIS2_EEE16__on_zero_sharedEv, symObjAddr: 0x5DC, symBinAddr: 0x43330, symSize: 0xC }
  - { offset: 0x396544, size: 0x8, addend: 0x0, symName: __ZNSt3__120__shared_ptr_emplaceIN12datatransfer19DataTransferProcessENS_9allocatorIS2_EEE21__on_zero_shared_weakEv, symObjAddr: 0x5E8, symBinAddr: 0x4333C, symSize: 0x4 }
  - { offset: 0x396577, size: 0x8, addend: 0x0, symName: __ZNSt3__120__shared_ptr_emplaceIN12datatransfer19DataTransferProcessENS_9allocatorIS2_EEE21__on_zero_shared_weakEv, symObjAddr: 0x5E8, symBinAddr: 0x4333C, symSize: 0x4 }
  - { offset: 0x396599, size: 0x8, addend: 0x0, symName: __ZNSt3__120__shared_ptr_emplaceIN12datatransfer19DataTransferProcessENS_9allocatorIS2_EEE21__on_zero_shared_weakEv, symObjAddr: 0x5E8, symBinAddr: 0x4333C, symSize: 0x4 }
  - { offset: 0x3965BB, size: 0x8, addend: 0x0, symName: __ZNSt3__120__shared_ptr_emplaceIN12datatransfer19DataTransferProcessENS_9allocatorIS2_EEE21__on_zero_shared_weakEv, symObjAddr: 0x5E8, symBinAddr: 0x4333C, symSize: 0x4 }
  - { offset: 0x3965E6, size: 0x8, addend: 0x0, symName: __ZNSt3__120__shared_ptr_emplaceIN12datatransfer19DataTransferProcessENS_9allocatorIS2_EEE21__on_zero_shared_weakEv, symObjAddr: 0x5E8, symBinAddr: 0x4333C, symSize: 0x4 }
  - { offset: 0x39660C, size: 0x8, addend: 0x0, symName: __ZNSt3__120__shared_ptr_emplaceIN12datatransfer19DataTransferProcessENS_9allocatorIS2_EEE21__on_zero_shared_weakEv, symObjAddr: 0x5E8, symBinAddr: 0x4333C, symSize: 0x4 }
  - { offset: 0x398EB3, size: 0x8, addend: 0x0, symName: __ZN5boost9iostreams6detail14system_failureEPKc, symObjAddr: 0x1530, symBinAddr: 0x3C274C, symSize: 0x10C }
  - { offset: 0x398EBB, size: 0x8, addend: 0x0, symName: __ZN5boost10wrapexceptINSt3__18ios_base7failureEEC1ERKS3_, symObjAddr: 0x163C, symBinAddr: 0x3C2858, symSize: 0x78 }
  - { offset: 0x39A7B3, size: 0x8, addend: 0x0, symName: __ZN5boost16exception_detail20copy_boost_exceptionEPNS_9exceptionEPKS1_, symObjAddr: 0x1AF4, symBinAddr: 0x3C2D08, symSize: 0x138 }
  - { offset: 0x39B1C0, size: 0x8, addend: 0x0, symName: __ZN5boost15throw_exceptionINSt3__18ios_base7failureEEEvRKT_, symObjAddr: 0x600, symBinAddr: 0x3C1D78, symSize: 0x50 }
  - { offset: 0x39B1C8, size: 0x8, addend: 0x0, symName: __ZN5boost9iostreams6detail23mapped_file_params_base9normalizeEv, symObjAddr: 0x650, symBinAddr: 0x3C1DC8, symSize: 0x168 }
  - { offset: 0x3A5A31, size: 0x8, addend: 0x0, symName: __ZN5boost9iostreams6detail16mapped_file_implC2Ev, symObjAddr: 0x0, symBinAddr: 0x3C1938, symSize: 0xDC }
  - { offset: 0x3A60B9, size: 0x8, addend: 0x0, symName: __ZN5boost9iostreams24basic_mapped_file_paramsINS0_6detail4pathEED1Ev, symObjAddr: 0x1B0, symBinAddr: 0x3C1A14, symSize: 0x58 }
  - { offset: 0x3A6453, size: 0x8, addend: 0x0, symName: __ZN5boost9iostreams6detail16mapped_file_impl5closeEv, symObjAddr: 0x278, symBinAddr: 0x3C1A6C, symSize: 0x164 }
  - { offset: 0x3A6FD8, size: 0x8, addend: 0x0, symName: __ZN5boost9iostreams6detail16mapped_file_impl4openENS0_24basic_mapped_file_paramsINS1_4pathEEE, symObjAddr: 0x458, symBinAddr: 0x3C1BD0, symSize: 0x1A8 }
  - { offset: 0x3A6FE0, size: 0x8, addend: 0x0, symName: __ZN5boost15throw_exceptionINSt3__18ios_base7failureEEEvRKT_, symObjAddr: 0x600, symBinAddr: 0x3C1D78, symSize: 0x50 }
  - { offset: 0x3A77A9, size: 0x8, addend: 0x0, symName: __ZN5boost9iostreams6detail23mapped_file_params_base9normalizeEv, symObjAddr: 0x650, symBinAddr: 0x3C1DC8, symSize: 0x168 }
  - { offset: 0x3A77B1, size: 0x8, addend: 0x0, symName: __ZN5boost9iostreams6detail16mapped_file_impl9open_fileENS0_24basic_mapped_file_paramsINS1_4pathEEE, symObjAddr: 0x7B8, symBinAddr: 0x3C1F30, symSize: 0x140 }
  - { offset: 0x3A7B14, size: 0x8, addend: 0x0, symName: __ZN5boost9iostreams6detail16mapped_file_impl9open_fileENS0_24basic_mapped_file_paramsINS1_4pathEEE, symObjAddr: 0x7B8, symBinAddr: 0x3C1F30, symSize: 0x140 }
  - { offset: 0x3A7B1C, size: 0x8, addend: 0x0, symName: __ZN5boost9iostreams24basic_mapped_file_paramsINS0_6detail4pathEEC1ERKS4_, symObjAddr: 0x8F8, symBinAddr: 0x3C2070, symSize: 0xC4 }
  - { offset: 0x3A7CDC, size: 0x8, addend: 0x0, symName: __ZN5boost9iostreams24basic_mapped_file_paramsINS0_6detail4pathEEC1ERKS4_, symObjAddr: 0x8F8, symBinAddr: 0x3C2070, symSize: 0xC4 }
  - { offset: 0x3A7CE4, size: 0x8, addend: 0x0, symName: __ZN5boost9iostreams6detail16mapped_file_impl8map_fileERNS0_24basic_mapped_file_paramsINS1_4pathEEE, symObjAddr: 0x9BC, symBinAddr: 0x3C2134, symSize: 0x1EC }
  - { offset: 0x3A80B5, size: 0x8, addend: 0x0, symName: __ZN5boost9iostreams6detail16mapped_file_impl8map_fileERNS0_24basic_mapped_file_paramsINS1_4pathEEE, symObjAddr: 0x9BC, symBinAddr: 0x3C2134, symSize: 0x1EC }
  - { offset: 0x3A875B, size: 0x8, addend: 0x0, symName: __ZN5boost9iostreams6detail16mapped_file_impl17cleanup_and_throwEPKc, symObjAddr: 0xEA4, symBinAddr: 0x3C2320, symSize: 0x128 }
  - { offset: 0x3A9089, size: 0x8, addend: 0x0, symName: __ZN5boost9iostreams6detail16mapped_file_impl12try_map_fileENS0_24basic_mapped_file_paramsINS1_4pathEEE, symObjAddr: 0xFE4, symBinAddr: 0x3C2448, symSize: 0x6C }
  - { offset: 0x3A922A, size: 0x8, addend: 0x0, symName: __ZN5boost10shared_ptrINS_9iostreams6detail16mapped_file_implEEC1IS3_EEPT_, symObjAddr: 0x1098, symBinAddr: 0x3C24B4, symSize: 0x104 }
  - { offset: 0x3A9232, size: 0x8, addend: 0x0, symName: __ZN5boost9iostreams18mapped_file_sourceC1Ev, symObjAddr: 0x119C, symBinAddr: 0x3C25B8, symSize: 0x48 }
  - { offset: 0x3A9407, size: 0x8, addend: 0x0, symName: __ZN5boost9iostreams18mapped_file_sourceC1Ev, symObjAddr: 0x119C, symBinAddr: 0x3C25B8, symSize: 0x48 }
  - { offset: 0x3A9425, size: 0x8, addend: 0x0, symName: __ZN5boost9iostreams18mapped_file_sourceC1Ev, symObjAddr: 0x119C, symBinAddr: 0x3C25B8, symSize: 0x48 }
  - { offset: 0x3A951C, size: 0x8, addend: 0x0, symName: __ZN5boost9iostreams18mapped_file_sourceC1Ev, symObjAddr: 0x119C, symBinAddr: 0x3C25B8, symSize: 0x48 }
  - { offset: 0x3A95D7, size: 0x8, addend: 0x0, symName: __ZNK5boost9iostreams18mapped_file_source7is_openEv, symObjAddr: 0x122C, symBinAddr: 0x3C2600, symSize: 0x14 }
  - { offset: 0x3A9616, size: 0x8, addend: 0x0, symName: __ZNK5boost9iostreams18mapped_file_source7is_openEv, symObjAddr: 0x122C, symBinAddr: 0x3C2600, symSize: 0x14 }
  - { offset: 0x3A9686, size: 0x8, addend: 0x0, symName: __ZNK5boost9iostreams18mapped_file_source4sizeEv, symObjAddr: 0x1270, symBinAddr: 0x3C2614, symSize: 0xC }
  - { offset: 0x3A968E, size: 0x8, addend: 0x0, symName: __ZNK5boost9iostreams18mapped_file_source4dataEv, symObjAddr: 0x127C, symBinAddr: 0x3C2620, symSize: 0xC }
  - { offset: 0x3A96C5, size: 0x8, addend: 0x0, symName: __ZNK5boost9iostreams18mapped_file_source4sizeEv, symObjAddr: 0x1270, symBinAddr: 0x3C2614, symSize: 0xC }
  - { offset: 0x3A9733, size: 0x8, addend: 0x0, symName: __ZNK5boost9iostreams18mapped_file_source4dataEv, symObjAddr: 0x127C, symBinAddr: 0x3C2620, symSize: 0xC }
  - { offset: 0x3A976A, size: 0x8, addend: 0x0, symName: __ZNK5boost9iostreams18mapped_file_source4dataEv, symObjAddr: 0x127C, symBinAddr: 0x3C2620, symSize: 0xC }
  - { offset: 0x3A97E4, size: 0x8, addend: 0x0, symName: __ZN5boost9iostreams18mapped_file_source9open_implERKNS0_24basic_mapped_file_paramsINS0_6detail4pathEEE, symObjAddr: 0x1378, symBinAddr: 0x3C262C, symSize: 0x120 }
  - { offset: 0x3AA09E, size: 0x8, addend: 0x0, symName: __ZN5boost10wrapexceptINSt3__18ios_base7failureEEC1ERKS3_, symObjAddr: 0x163C, symBinAddr: 0x3C2858, symSize: 0x78 }
  - { offset: 0x3AA0A6, size: 0x8, addend: 0x0, symName: __ZN5boost10wrapexceptINSt3__18ios_base7failureEED1Ev, symObjAddr: 0x16B4, symBinAddr: 0x3C28D0, symSize: 0x58 }
  - { offset: 0x3AA28B, size: 0x8, addend: 0x0, symName: __ZN5boost10wrapexceptINSt3__18ios_base7failureEED1Ev, symObjAddr: 0x16B4, symBinAddr: 0x3C28D0, symSize: 0x58 }
  - { offset: 0x3AA293, size: 0x8, addend: 0x0, symName: __ZNK5boost10wrapexceptINSt3__18ios_base7failureEE5cloneEv, symObjAddr: 0x170C, symBinAddr: 0x3C2928, symSize: 0x108 }
  - { offset: 0x3AA509, size: 0x8, addend: 0x0, symName: __ZNK5boost10wrapexceptINSt3__18ios_base7failureEE5cloneEv, symObjAddr: 0x170C, symBinAddr: 0x3C2928, symSize: 0x108 }
  - { offset: 0x3AA511, size: 0x8, addend: 0x0, symName: __ZNK5boost10wrapexceptINSt3__18ios_base7failureEE7rethrowEv, symObjAddr: 0x1814, symBinAddr: 0x3C2A30, symSize: 0x50 }
  - { offset: 0x3AA739, size: 0x8, addend: 0x0, symName: __ZNK5boost10wrapexceptINSt3__18ios_base7failureEE7rethrowEv, symObjAddr: 0x1814, symBinAddr: 0x3C2A30, symSize: 0x50 }
  - { offset: 0x3AA756, size: 0x8, addend: 0x0, symName: __ZNK5boost10wrapexceptINSt3__18ios_base7failureEE7rethrowEv, symObjAddr: 0x1814, symBinAddr: 0x3C2A30, symSize: 0x50 }
  - { offset: 0x3AA765, size: 0x8, addend: 0x0, symName: __ZNK5boost10wrapexceptINSt3__18ios_base7failureEE7rethrowEv, symObjAddr: 0x1814, symBinAddr: 0x3C2A30, symSize: 0x50 }
  - { offset: 0x3AA76D, size: 0x8, addend: 0x0, symName: __ZN5boost10wrapexceptINSt3__18ios_base7failureEED0Ev, symObjAddr: 0x1864, symBinAddr: 0x3C2A80, symSize: 0x58 }
  - { offset: 0x3AA7BE, size: 0x8, addend: 0x0, symName: __ZN5boost10wrapexceptINSt3__18ios_base7failureEED0Ev, symObjAddr: 0x1864, symBinAddr: 0x3C2A80, symSize: 0x58 }
  - { offset: 0x3AA7C6, size: 0x8, addend: 0x0, symName: __ZThn8_N5boost10wrapexceptINSt3__18ios_base7failureEED1Ev, symObjAddr: 0x18BC, symBinAddr: 0x3C2AD8, symSize: 0x50 }
  - { offset: 0x3AA8AA, size: 0x8, addend: 0x0, symName: __ZThn8_N5boost10wrapexceptINSt3__18ios_base7failureEED1Ev, symObjAddr: 0x18BC, symBinAddr: 0x3C2AD8, symSize: 0x50 }
  - { offset: 0x3AA8B2, size: 0x8, addend: 0x0, symName: __ZThn8_N5boost10wrapexceptINSt3__18ios_base7failureEED0Ev, symObjAddr: 0x190C, symBinAddr: 0x3C2B28, symSize: 0x5C }
  - { offset: 0x3AA8D7, size: 0x8, addend: 0x0, symName: __ZThn8_N5boost10wrapexceptINSt3__18ios_base7failureEED0Ev, symObjAddr: 0x190C, symBinAddr: 0x3C2B28, symSize: 0x5C }
  - { offset: 0x3AA8FD, size: 0x8, addend: 0x0, symName: __ZThn8_N5boost10wrapexceptINSt3__18ios_base7failureEED0Ev, symObjAddr: 0x190C, symBinAddr: 0x3C2B28, symSize: 0x5C }
  - { offset: 0x3AA9B9, size: 0x8, addend: 0x0, symName: __ZThn8_N5boost10wrapexceptINSt3__18ios_base7failureEED0Ev, symObjAddr: 0x190C, symBinAddr: 0x3C2B28, symSize: 0x5C }
  - { offset: 0x3AA9C1, size: 0x8, addend: 0x0, symName: __ZThn40_N5boost10wrapexceptINSt3__18ios_base7failureEED1Ev, symObjAddr: 0x1968, symBinAddr: 0x3C2B84, symSize: 0x50 }
  - { offset: 0x3AAAB3, size: 0x8, addend: 0x0, symName: __ZThn40_N5boost10wrapexceptINSt3__18ios_base7failureEED1Ev, symObjAddr: 0x1968, symBinAddr: 0x3C2B84, symSize: 0x50 }
  - { offset: 0x3AAABB, size: 0x8, addend: 0x0, symName: __ZThn40_N5boost10wrapexceptINSt3__18ios_base7failureEED0Ev, symObjAddr: 0x19B8, symBinAddr: 0x3C2BD4, symSize: 0x5C }
  - { offset: 0x3AAAE0, size: 0x8, addend: 0x0, symName: __ZThn40_N5boost10wrapexceptINSt3__18ios_base7failureEED0Ev, symObjAddr: 0x19B8, symBinAddr: 0x3C2BD4, symSize: 0x5C }
  - { offset: 0x3AAB06, size: 0x8, addend: 0x0, symName: __ZThn40_N5boost10wrapexceptINSt3__18ios_base7failureEED0Ev, symObjAddr: 0x19B8, symBinAddr: 0x3C2BD4, symSize: 0x5C }
  - { offset: 0x3AABA1, size: 0x8, addend: 0x0, symName: __ZThn40_N5boost10wrapexceptINSt3__18ios_base7failureEED0Ev, symObjAddr: 0x19B8, symBinAddr: 0x3C2BD4, symSize: 0x5C }
  - { offset: 0x3AABA9, size: 0x8, addend: 0x0, symName: __ZN5boost16exception_detail10clone_baseD1Ev, symObjAddr: 0x1A14, symBinAddr: 0xF4D7A0, symSize: 0x4 }
  - { offset: 0x3AAC9F, size: 0x8, addend: 0x0, symName: __ZN5boost16exception_detail10clone_baseD1Ev, symObjAddr: 0x1A14, symBinAddr: 0xF4D7A0, symSize: 0x4 }
  - { offset: 0x3AACA7, size: 0x8, addend: 0x0, symName: __ZN5boost16exception_detail10clone_baseD0Ev, symObjAddr: 0x1A18, symBinAddr: 0xF4D7A4, symSize: 0x4 }
  - { offset: 0x3AACD6, size: 0x8, addend: 0x0, symName: __ZN5boost16exception_detail10clone_baseD0Ev, symObjAddr: 0x1A18, symBinAddr: 0xF4D7A4, symSize: 0x4 }
  - { offset: 0x3AACDE, size: 0x8, addend: 0x0, symName: __ZN5boost10wrapexceptINSt3__18ios_base7failureEEC1ERKS4_, symObjAddr: 0x1A1C, symBinAddr: 0x3C2C30, symSize: 0xD8 }
  - { offset: 0x3AAD0D, size: 0x8, addend: 0x0, symName: __ZN5boost10wrapexceptINSt3__18ios_base7failureEEC1ERKS4_, symObjAddr: 0x1A1C, symBinAddr: 0x3C2C30, symSize: 0xD8 }
  - { offset: 0x3AAD15, size: 0x8, addend: 0x0, symName: __ZN5boost16exception_detail20copy_boost_exceptionEPNS_9exceptionEPKS1_, symObjAddr: 0x1AF4, symBinAddr: 0x3C2D08, symSize: 0x138 }
  - { offset: 0x3AB181, size: 0x8, addend: 0x0, symName: __ZNSt3__112basic_stringIwNS_11char_traitsIwEENS_9allocatorIwEEE25__init_copy_ctor_externalEPKwm, symObjAddr: 0x1D68, symBinAddr: 0x3C2E40, symSize: 0xA0 }
  - { offset: 0x3AB767, size: 0x8, addend: 0x0, symName: __ZN5boost6detail12shared_countC1INS_9iostreams6detail16mapped_file_implEEEPT_, symObjAddr: 0x1E1C, symBinAddr: 0x3C2EE0, symSize: 0xB0 }
  - { offset: 0x3AB76F, size: 0x8, addend: 0x0, symName: __ZN5boost6detail17sp_counted_impl_pINS_9iostreams6detail16mapped_file_implEED1Ev, symObjAddr: 0x1ECC, symBinAddr: 0x3C2F90, symSize: 0x4 }
  - { offset: 0x3ABCB6, size: 0x8, addend: 0x0, symName: __ZN5boost6detail17sp_counted_impl_pINS_9iostreams6detail16mapped_file_implEED1Ev, symObjAddr: 0x1ECC, symBinAddr: 0x3C2F90, symSize: 0x4 }
  - { offset: 0x3ABCBE, size: 0x8, addend: 0x0, symName: __ZN5boost6detail17sp_counted_impl_pINS_9iostreams6detail16mapped_file_implEED0Ev, symObjAddr: 0x1ED0, symBinAddr: 0x3C2F94, symSize: 0x4 }
  - { offset: 0x3ABCEF, size: 0x8, addend: 0x0, symName: __ZN5boost6detail17sp_counted_impl_pINS_9iostreams6detail16mapped_file_implEED0Ev, symObjAddr: 0x1ED0, symBinAddr: 0x3C2F94, symSize: 0x4 }
  - { offset: 0x3ABCF7, size: 0x8, addend: 0x0, symName: __ZN5boost6detail17sp_counted_impl_pINS_9iostreams6detail16mapped_file_implEE7disposeEv, symObjAddr: 0x1ED4, symBinAddr: 0x3C2F98, symSize: 0x80 }
  - { offset: 0x3ABD28, size: 0x8, addend: 0x0, symName: __ZN5boost6detail17sp_counted_impl_pINS_9iostreams6detail16mapped_file_implEE7disposeEv, symObjAddr: 0x1ED4, symBinAddr: 0x3C2F98, symSize: 0x80 }
  - { offset: 0x3ABD30, size: 0x8, addend: 0x0, symName: __ZN5boost6detail15sp_counted_base7destroyEv, symObjAddr: 0x1F54, symBinAddr: 0x3C3018, symSize: 0x14 }
  - { offset: 0x3AC126, size: 0x8, addend: 0x0, symName: __ZN5boost6detail15sp_counted_base7destroyEv, symObjAddr: 0x1F54, symBinAddr: 0x3C3018, symSize: 0x14 }
  - { offset: 0x3AC12E, size: 0x8, addend: 0x0, symName: __ZN5boost6detail17sp_counted_impl_pINS_9iostreams6detail16mapped_file_implEE11get_deleterERKSt9type_info, symObjAddr: 0x1F68, symBinAddr: 0x3C302C, symSize: 0x8 }
  - { offset: 0x3AC159, size: 0x8, addend: 0x0, symName: __ZN5boost6detail17sp_counted_impl_pINS_9iostreams6detail16mapped_file_implEE11get_deleterERKSt9type_info, symObjAddr: 0x1F68, symBinAddr: 0x3C302C, symSize: 0x8 }
  - { offset: 0x3AC161, size: 0x8, addend: 0x0, symName: __ZN5boost6detail17sp_counted_impl_pINS_9iostreams6detail16mapped_file_implEE17get_local_deleterERKSt9type_info, symObjAddr: 0x1F70, symBinAddr: 0x3C3034, symSize: 0x8 }
  - { offset: 0x3AC19C, size: 0x8, addend: 0x0, symName: __ZN5boost6detail17sp_counted_impl_pINS_9iostreams6detail16mapped_file_implEE17get_local_deleterERKSt9type_info, symObjAddr: 0x1F70, symBinAddr: 0x3C3034, symSize: 0x8 }
  - { offset: 0x3AC1A4, size: 0x8, addend: 0x0, symName: __ZN5boost6detail17sp_counted_impl_pINS_9iostreams6detail16mapped_file_implEE19get_untyped_deleterEv, symObjAddr: 0x1F78, symBinAddr: 0x3C303C, symSize: 0x8 }
  - { offset: 0x3AC1DF, size: 0x8, addend: 0x0, symName: __ZN5boost6detail17sp_counted_impl_pINS_9iostreams6detail16mapped_file_implEE19get_untyped_deleterEv, symObjAddr: 0x1F78, symBinAddr: 0x3C303C, symSize: 0x8 }
  - { offset: 0x3AF9D8, size: 0x8, addend: 0x0, symName: __ZN5boost16exception_detail37exception_ptr_static_exception_objectINS0_10bad_alloc_EE1eE, symObjAddr: 0x9B38, symBinAddr: 0x12201A8, symSize: 0x0 }
  - { offset: 0x3AFB79, size: 0x8, addend: 0x0, symName: __ZN5boost16exception_detail37exception_ptr_static_exception_objectINS0_14bad_exception_EE1eE, symObjAddr: 0x9B50, symBinAddr: 0x12201C0, symSize: 0x0 }
  - { offset: 0x3AFC35, size: 0x8, addend: 0x0, symName: __ZN5boost16exception_detail27get_static_exception_objectINS0_10bad_alloc_EEENS_13exception_ptrEv, symObjAddr: 0x2BC4, symBinAddr: 0x414504, symSize: 0x2A0 }
  - { offset: 0x3AFC3D, size: 0x8, addend: 0x0, symName: __ZN5boost13exception_ptrD1Ev, symObjAddr: 0x2E64, symBinAddr: 0x4147A4, symSize: 0x7C }
  - { offset: 0x3AFC6E, size: 0x8, addend: 0x0, symName: __ZZN5boost16exception_detail27get_static_exception_objectINS0_10bad_alloc_EEENS_13exception_ptrEvE2ep, symObjAddr: 0x9BA0, symBinAddr: 0x1220210, symSize: 0x0 }
  - { offset: 0x3B04EF, size: 0x8, addend: 0x0, symName: __ZN5boost16exception_detail27get_static_exception_objectINS0_14bad_exception_EEENS_13exception_ptrEv, symObjAddr: 0x2EE0, symBinAddr: 0x414820, symSize: 0x260 }
  - { offset: 0x3B04F7, size: 0x8, addend: 0x0, symName: __ZN5boost6detail17shared_state_base22mark_finished_internalERNS_11unique_lockINS_5mutexEEE, symObjAddr: 0x3140, symBinAddr: 0x414A80, symSize: 0xD4 }
  - { offset: 0x3B0528, size: 0x8, addend: 0x0, symName: __ZZN5boost16exception_detail27get_static_exception_objectINS0_14bad_exception_EEENS_13exception_ptrEvE2ep, symObjAddr: 0x9BB8, symBinAddr: 0x1220228, symSize: 0x0 }
  - { offset: 0x3B1910, size: 0x8, addend: 0x0, symName: __MergedGlobals, symObjAddr: 0xBE610, symBinAddr: 0x12C8548, symSize: 0x0 }
  - { offset: 0x3B192E, size: 0x8, addend: 0x0, symName: __MergedGlobals, symObjAddr: 0xBE610, symBinAddr: 0x12C8548, symSize: 0x0 }
  - { offset: 0x3B2D0D, size: 0x8, addend: 0x0, symName: __ZN5boost6detail23get_current_thread_dataEv, symObjAddr: 0x3D8, symBinAddr: 0x411F40, symSize: 0x7C }
  - { offset: 0x3B2D15, size: 0x8, addend: 0x0, symName: __ZN5boost6detail23set_current_thread_dataEPNS0_16thread_data_baseE, symObjAddr: 0x454, symBinAddr: 0x411FBC, symSize: 0x84 }
  - { offset: 0x3B2D91, size: 0x8, addend: 0x0, symName: __ZN5boost6detail23set_current_thread_dataEPNS0_16thread_data_baseE, symObjAddr: 0x454, symBinAddr: 0x411FBC, symSize: 0x84 }
  - { offset: 0x3B3198, size: 0x8, addend: 0x0, symName: __ZN5boost6detail24add_thread_exit_functionEPNS0_25thread_exit_function_baseE, symObjAddr: 0x2394, symBinAddr: 0x413E18, symSize: 0x84 }
  - { offset: 0x3B3398, size: 0x8, addend: 0x0, symName: __ZN5boost6detail12get_tss_dataEPKv, symObjAddr: 0x248C, symBinAddr: 0x413E9C, symSize: 0x84 }
  - { offset: 0x3B33A0, size: 0x8, addend: 0x0, symName: __ZN5boost6detail16add_new_tss_nodeEPKvPFvPFvPvES3_ES5_S3_, symObjAddr: 0x2510, symBinAddr: 0x413F20, symSize: 0x130 }
  - { offset: 0x3B35CC, size: 0x8, addend: 0x0, symName: __ZN5boost6detail16add_new_tss_nodeEPKvPFvPFvPvES3_ES5_S3_, symObjAddr: 0x2510, symBinAddr: 0x413F20, symSize: 0x130 }
  - { offset: 0x3B3AAE, size: 0x8, addend: 0x0, symName: __ZN5boost6detail12set_tss_dataEPKvPFvPFvPvES3_ES5_S3_b, symObjAddr: 0x2710, symBinAddr: 0x414050, symSize: 0x1A8 }
  - { offset: 0x3B3AB6, size: 0x8, addend: 0x0, symName: __ZN5boost25notify_all_at_thread_exitERNS_18condition_variableENS_11unique_lockINS_5mutexEEE, symObjAddr: 0x28B8, symBinAddr: 0x4141F8, symSize: 0x4C }
  - { offset: 0x3B3F03, size: 0x8, addend: 0x0, symName: __ZN5boost25notify_all_at_thread_exitERNS_18condition_variableENS_11unique_lockINS_5mutexEEE, symObjAddr: 0x28B8, symBinAddr: 0x4141F8, symSize: 0x4C }
  - { offset: 0x3B402A, size: 0x8, addend: 0x0, symName: __ZN5boost25notify_all_at_thread_exitERNS_18condition_variableENS_11unique_lockINS_5mutexEEE, symObjAddr: 0x28B8, symBinAddr: 0x4141F8, symSize: 0x4C }
  - { offset: 0x3B4060, size: 0x8, addend: 0x0, symName: __ZN5boost25notify_all_at_thread_exitERNS_18condition_variableENS_11unique_lockINS_5mutexEEE, symObjAddr: 0x28B8, symBinAddr: 0x4141F8, symSize: 0x4C }
  - { offset: 0x3B4096, size: 0x8, addend: 0x0, symName: __ZN5boost25notify_all_at_thread_exitERNS_18condition_variableENS_11unique_lockINS_5mutexEEE, symObjAddr: 0x28B8, symBinAddr: 0x4141F8, symSize: 0x4C }
  - { offset: 0x3B40D9, size: 0x8, addend: 0x0, symName: __ZN5boost25notify_all_at_thread_exitERNS_18condition_variableENS_11unique_lockINS_5mutexEEE, symObjAddr: 0x28B8, symBinAddr: 0x4141F8, symSize: 0x4C }
  - { offset: 0x3B4113, size: 0x8, addend: 0x0, symName: __ZN5boost25notify_all_at_thread_exitERNS_18condition_variableENS_11unique_lockINS_5mutexEEE, symObjAddr: 0x28B8, symBinAddr: 0x4141F8, symSize: 0x4C }
  - { offset: 0x3B413A, size: 0x8, addend: 0x0, symName: __ZN5boost6detail25make_ready_at_thread_exitENS_10shared_ptrINS0_17shared_state_baseEEE, symObjAddr: 0x2904, symBinAddr: 0x414244, symSize: 0x124 }
  - { offset: 0x3B4142, size: 0x8, addend: 0x0, symName: __ZN5boost10shared_ptrINS_6detail17shared_state_baseEED1Ev, symObjAddr: 0x2A28, symBinAddr: 0x414368, symSize: 0x7C }
  - { offset: 0x3B4BA8, size: 0x8, addend: 0x0, symName: __ZN5boost6detail20sp_pointer_constructINS0_16thread_data_baseES2_EEvPNS_10shared_ptrIT_EEPT0_RNS0_12shared_countE, symObjAddr: 0x763C, symBinAddr: 0x41894C, symSize: 0x104 }
  - { offset: 0x3B4BB0, size: 0x8, addend: 0x0, symName: __ZN5boost6detail17sp_counted_impl_pINS0_16thread_data_baseEED1Ev, symObjAddr: 0x7740, symBinAddr: 0x418A50, symSize: 0x4 }
  - { offset: 0x3B57EF, size: 0x8, addend: 0x0, symName: __ZN5boost6system6detail8snprintfEPcmPKcz, symObjAddr: 0x5540, symBinAddr: 0x4168CC, symSize: 0x28 }
  - { offset: 0x3B57F7, size: 0x8, addend: 0x0, symName: __ZN5boost11unique_lockINS_5mutexEE4lockEv, symObjAddr: 0x5568, symBinAddr: 0x4168F4, symSize: 0xEC }
  - { offset: 0x3BED0D, size: 0x8, addend: 0x0, symName: __ZN5boost11this_thread21no_interruption_point6hidden18sleep_for_internalERKNS_6detail17platform_durationE, symObjAddr: 0x18B4, symBinAddr: 0x413338, symSize: 0x24 }
  - { offset: 0x3BED15, size: 0x8, addend: 0x0, symName: __ZN5boost11this_thread5yieldEv, symObjAddr: 0x18D8, symBinAddr: 0x41335C, symSize: 0x18 }
  - { offset: 0x3BEDC4, size: 0x8, addend: 0x0, symName: __ZN5boost11this_thread5yieldEv, symObjAddr: 0x18D8, symBinAddr: 0x41335C, symSize: 0x18 }
  - { offset: 0x3BEDCC, size: 0x8, addend: 0x0, symName: __ZN5boost6thread20hardware_concurrencyEv, symObjAddr: 0x18F0, symBinAddr: 0x413374, symSize: 0x4C }
  - { offset: 0x3BEDE5, size: 0x8, addend: 0x0, symName: __ZN5boost11this_thread18interruption_pointEv, symObjAddr: 0x1F24, symBinAddr: 0x4139A8, symSize: 0x140 }
  - { offset: 0x3BEDED, size: 0x8, addend: 0x0, symName: __ZN5boost11this_thread20interruption_enabledEv, symObjAddr: 0x2064, symBinAddr: 0x413AE8, symSize: 0x28 }
  - { offset: 0x3BF131, size: 0x8, addend: 0x0, symName: __ZN5boost11this_thread20interruption_enabledEv, symObjAddr: 0x2064, symBinAddr: 0x413AE8, symSize: 0x28 }
  - { offset: 0x3BF139, size: 0x8, addend: 0x0, symName: __ZN5boost11this_thread22interruption_requestedEv, symObjAddr: 0x208C, symBinAddr: 0x413B10, symSize: 0x110 }
  - { offset: 0x3BF15C, size: 0x8, addend: 0x0, symName: __ZN5boost11this_thread22interruption_requestedEv, symObjAddr: 0x208C, symBinAddr: 0x413B10, symSize: 0x110 }
  - { offset: 0x3BF164, size: 0x8, addend: 0x0, symName: __ZN5boost11this_thread20disable_interruptionC2Ev, symObjAddr: 0x219C, symBinAddr: 0x413C20, symSize: 0x58 }
  - { offset: 0x3BF634, size: 0x8, addend: 0x0, symName: __ZN5boost25notify_all_at_thread_exitERNS_18condition_variableENS_11unique_lockINS_5mutexEEE, symObjAddr: 0x28B8, symBinAddr: 0x4141F8, symSize: 0x4C }
  - { offset: 0x3BF63C, size: 0x8, addend: 0x0, symName: __ZN5boost6detail25make_ready_at_thread_exitENS_10shared_ptrINS0_17shared_state_baseEEE, symObjAddr: 0x2904, symBinAddr: 0x414244, symSize: 0x124 }
  - { offset: 0x3BF976, size: 0x8, addend: 0x0, symName: __ZN5boost15throw_exceptionINS_12bad_weak_ptrEEEvRKT_, symObjAddr: 0x3500, symBinAddr: 0x414E40, symSize: 0x48 }
  - { offset: 0x3BF97E, size: 0x8, addend: 0x0, symName: __ZN5boost12bad_weak_ptrD1Ev, symObjAddr: 0x3548, symBinAddr: 0x414E88, symSize: 0x4 }
  - { offset: 0x3BFA29, size: 0x8, addend: 0x0, symName: __ZN5boost15throw_exceptionINS_15condition_errorEEEvRKT_, symObjAddr: 0x3FAC, symBinAddr: 0x4153E8, symSize: 0x50 }
  - { offset: 0x3BFA31, size: 0x8, addend: 0x0, symName: __ZN5boost15condition_errorC1EiPKc, symObjAddr: 0x3FFC, symBinAddr: 0x415438, symSize: 0xB0 }
  - { offset: 0x3BFA6C, size: 0x8, addend: 0x0, symName: __ZN5boost15throw_exceptionINS_10lock_errorEEEvRKT_, symObjAddr: 0x4308, symBinAddr: 0x415744, symSize: 0x50 }
  - { offset: 0x3BFA74, size: 0x8, addend: 0x0, symName: __ZN5boost10lock_errorC1EiPKc, symObjAddr: 0x4358, symBinAddr: 0x415794, symSize: 0xB0 }
  - { offset: 0x3BFB07, size: 0x8, addend: 0x0, symName: __ZN5boost15throw_exceptionINS_21thread_resource_errorEEEvRKT_, symObjAddr: 0x6F9C, symBinAddr: 0x4182AC, symSize: 0x50 }
  - { offset: 0x3BFB0F, size: 0x8, addend: 0x0, symName: __ZN5boost21thread_resource_errorC1EiPKc, symObjAddr: 0x6FEC, symBinAddr: 0x4182FC, symSize: 0xB0 }
  - { offset: 0x3D2FA3, size: 0x8, addend: 0x0, symName: __ZN5boost6system6detail18generic_cat_holderIvE8instanceE, symObjAddr: 0x9B68, symBinAddr: 0x12201D8, symSize: 0x0 }
  - { offset: 0x3D596F, size: 0x8, addend: 0x0, symName: __ZN5boost6detail16thread_data_baseD2Ev, symObjAddr: 0x0, symBinAddr: 0x411B78, symSize: 0x2C0 }
  - { offset: 0x3D65D5, size: 0x8, addend: 0x0, symName: __ZN5boost5mutexD1Ev, symObjAddr: 0x2D0, symBinAddr: 0x411E38, symSize: 0x34 }
  - { offset: 0x3D65DD, size: 0x8, addend: 0x0, symName: __ZN5boost10shared_ptrINS_6detail16thread_data_baseEED1Ev, symObjAddr: 0x304, symBinAddr: 0x411E6C, symSize: 0x7C }
  - { offset: 0x3D665C, size: 0x8, addend: 0x0, symName: __ZN5boost10shared_ptrINS_6detail16thread_data_baseEED1Ev, symObjAddr: 0x304, symBinAddr: 0x411E6C, symSize: 0x7C }
  - { offset: 0x3D6664, size: 0x8, addend: 0x0, symName: __ZN5boost23enable_shared_from_thisINS_6detail16thread_data_baseEED2Ev, symObjAddr: 0x380, symBinAddr: 0x411EE8, symSize: 0x50 }
  - { offset: 0x3D678F, size: 0x8, addend: 0x0, symName: __ZN5boost23enable_shared_from_thisINS_6detail16thread_data_baseEED2Ev, symObjAddr: 0x380, symBinAddr: 0x411EE8, symSize: 0x50 }
  - { offset: 0x3D6797, size: 0x8, addend: 0x0, symName: __ZN5boost6detail16thread_data_baseD1Ev, symObjAddr: 0x3D0, symBinAddr: 0x411F38, symSize: 0x4 }
  - { offset: 0x3D688C, size: 0x8, addend: 0x0, symName: __ZN5boost6detail16thread_data_baseD1Ev, symObjAddr: 0x3D0, symBinAddr: 0x411F38, symSize: 0x4 }
  - { offset: 0x3D6894, size: 0x8, addend: 0x0, symName: __ZN5boost6detail16thread_data_baseD0Ev, symObjAddr: 0x3D4, symBinAddr: 0x411F3C, symSize: 0x4 }
  - { offset: 0x3D68C3, size: 0x8, addend: 0x0, symName: __ZN5boost6detail16thread_data_baseD0Ev, symObjAddr: 0x3D4, symBinAddr: 0x411F3C, symSize: 0x4 }
  - { offset: 0x3D68CB, size: 0x8, addend: 0x0, symName: __ZN5boost6detail23get_current_thread_dataEv, symObjAddr: 0x3D8, symBinAddr: 0x411F40, symSize: 0x7C }
  - { offset: 0x3D6A33, size: 0x8, addend: 0x0, symName: __ZN5boost10shared_ptrINS_6detail16thread_data_baseEE5resetIS2_EEvPT_, symObjAddr: 0x53C, symBinAddr: 0x412040, symSize: 0x108 }
  - { offset: 0x3D6EF5, size: 0x8, addend: 0x0, symName: __ZN5boost6threadC2Ev, symObjAddr: 0x6C4, symBinAddr: 0x412148, symSize: 0x8 }
  - { offset: 0x3D6EFD, size: 0x8, addend: 0x0, symName: __ZN5boost6threadC1Ev, symObjAddr: 0x6CC, symBinAddr: 0x412150, symSize: 0x8 }
  - { offset: 0x3D6F2A, size: 0x8, addend: 0x0, symName: __ZN5boost6threadC2Ev, symObjAddr: 0x6C4, symBinAddr: 0x412148, symSize: 0x8 }
  - { offset: 0x3D6F54, size: 0x8, addend: 0x0, symName: __ZN5boost6threadC2Ev, symObjAddr: 0x6C4, symBinAddr: 0x412148, symSize: 0x8 }
  - { offset: 0x3D6F7E, size: 0x8, addend: 0x0, symName: __ZN5boost6threadC2Ev, symObjAddr: 0x6C4, symBinAddr: 0x412148, symSize: 0x8 }
  - { offset: 0x3D6FA6, size: 0x8, addend: 0x0, symName: __ZN5boost6threadC2Ev, symObjAddr: 0x6C4, symBinAddr: 0x412148, symSize: 0x8 }
  - { offset: 0x3D6FF9, size: 0x8, addend: 0x0, symName: __ZN5boost6threadC1Ev, symObjAddr: 0x6CC, symBinAddr: 0x412150, symSize: 0x8 }
  - { offset: 0x3D7001, size: 0x8, addend: 0x0, symName: __ZN5boost6thread21start_thread_noexceptEv, symObjAddr: 0x6D4, symBinAddr: 0x412158, symSize: 0x124 }
  - { offset: 0x3D703A, size: 0x8, addend: 0x0, symName: __ZN5boost6threadC1Ev, symObjAddr: 0x6CC, symBinAddr: 0x412150, symSize: 0x8 }
  - { offset: 0x3D7064, size: 0x8, addend: 0x0, symName: __ZN5boost6threadC1Ev, symObjAddr: 0x6CC, symBinAddr: 0x412150, symSize: 0x8 }
  - { offset: 0x3D708E, size: 0x8, addend: 0x0, symName: __ZN5boost6threadC1Ev, symObjAddr: 0x6CC, symBinAddr: 0x412150, symSize: 0x8 }
  - { offset: 0x3D70B8, size: 0x8, addend: 0x0, symName: __ZN5boost6threadC1Ev, symObjAddr: 0x6CC, symBinAddr: 0x412150, symSize: 0x8 }
  - { offset: 0x3D70E0, size: 0x8, addend: 0x0, symName: __ZN5boost6threadC1Ev, symObjAddr: 0x6CC, symBinAddr: 0x412150, symSize: 0x8 }
  - { offset: 0x3D72A5, size: 0x8, addend: 0x0, symName: __ZN5boost6thread21start_thread_noexceptEv, symObjAddr: 0x6D4, symBinAddr: 0x412158, symSize: 0x124 }
  - { offset: 0x3D72AD, size: 0x8, addend: 0x0, symName: __ZN5boost12_GLOBAL__N_112thread_proxyEPv, symObjAddr: 0x7F8, symBinAddr: 0x41227C, symSize: 0x2E8 }
  - { offset: 0x3D7C6C, size: 0x8, addend: 0x0, symName: __ZN5boost12_GLOBAL__N_112thread_proxyEPv, symObjAddr: 0x7F8, symBinAddr: 0x41227C, symSize: 0x2E8 }
  - { offset: 0x3D7C74, size: 0x8, addend: 0x0, symName: __ZN5boost6thread21start_thread_noexceptERKNS_17thread_attributesE, symObjAddr: 0xAE0, symBinAddr: 0x412564, symSize: 0x270 }
  - { offset: 0x3D7E48, size: 0x8, addend: 0x0, symName: __ZN5boost6thread21start_thread_noexceptERKNS_17thread_attributesE, symObjAddr: 0xAE0, symBinAddr: 0x412564, symSize: 0x270 }
  - { offset: 0x3D7E70, size: 0x8, addend: 0x0, symName: __ZN5boost6thread21start_thread_noexceptERKNS_17thread_attributesE, symObjAddr: 0xAE0, symBinAddr: 0x412564, symSize: 0x270 }
  - { offset: 0x3D85AC, size: 0x8, addend: 0x0, symName: __ZN5boost6thread21start_thread_noexceptERKNS_17thread_attributesE, symObjAddr: 0xAE0, symBinAddr: 0x412564, symSize: 0x270 }
  - { offset: 0x3D85B4, size: 0x8, addend: 0x0, symName: __ZNK5boost6thread15get_thread_infoEv, symObjAddr: 0xD50, symBinAddr: 0x4127D4, symSize: 0x24 }
  - { offset: 0x3D8E47, size: 0x8, addend: 0x0, symName: __ZNK5boost6thread15get_thread_infoEv, symObjAddr: 0xD50, symBinAddr: 0x4127D4, symSize: 0x24 }
  - { offset: 0x3D8E4F, size: 0x8, addend: 0x0, symName: __ZN5boost6thread13join_noexceptEv, symObjAddr: 0xD74, symBinAddr: 0x4127F8, symSize: 0x304 }
  - { offset: 0x3D8E7C, size: 0x8, addend: 0x0, symName: __ZNK5boost6thread15get_thread_infoEv, symObjAddr: 0xD50, symBinAddr: 0x4127D4, symSize: 0x24 }
  - { offset: 0x3D8EB4, size: 0x8, addend: 0x0, symName: __ZNK5boost6thread15get_thread_infoEv, symObjAddr: 0xD50, symBinAddr: 0x4127D4, symSize: 0x24 }
  - { offset: 0x3D8FDA, size: 0x8, addend: 0x0, symName: __ZN5boost6thread13join_noexceptEv, symObjAddr: 0xD74, symBinAddr: 0x4127F8, symSize: 0x304 }
  - { offset: 0x3D8FE2, size: 0x8, addend: 0x0, symName: __ZN5boost18condition_variable4waitERNS_11unique_lockINS_5mutexEEE, symObjAddr: 0x1078, symBinAddr: 0x412AFC, symSize: 0xFC }
  - { offset: 0x3D9BC9, size: 0x8, addend: 0x0, symName: __ZN5boost18condition_variable4waitERNS_11unique_lockINS_5mutexEEE, symObjAddr: 0x1078, symBinAddr: 0x412AFC, symSize: 0xFC }
  - { offset: 0x3D9BD1, size: 0x8, addend: 0x0, symName: __ZN5boost11unique_lockINS_5mutexEED1Ev, symObjAddr: 0x1174, symBinAddr: 0x412BF8, symSize: 0x40 }
  - { offset: 0x3D9E78, size: 0x8, addend: 0x0, symName: __ZN5boost11unique_lockINS_5mutexEED1Ev, symObjAddr: 0x1174, symBinAddr: 0x412BF8, symSize: 0x40 }
  - { offset: 0x3D9E80, size: 0x8, addend: 0x0, symName: __ZN5boost10lock_guardINS_5mutexEED1Ev, symObjAddr: 0x11B4, symBinAddr: 0x412C38, symSize: 0x38 }
  - { offset: 0x3D9F56, size: 0x8, addend: 0x0, symName: __ZN5boost10lock_guardINS_5mutexEED1Ev, symObjAddr: 0x11B4, symBinAddr: 0x412C38, symSize: 0x38 }
  - { offset: 0x3D9F5E, size: 0x8, addend: 0x0, symName: __ZN5boost6thread26do_try_join_until_noexceptERKNS_6detail23real_platform_timepointERb, symObjAddr: 0x11EC, symBinAddr: 0x412C70, symSize: 0x364 }
  - { offset: 0x3DA007, size: 0x8, addend: 0x0, symName: __ZN5boost6thread26do_try_join_until_noexceptERKNS_6detail23real_platform_timepointERb, symObjAddr: 0x11EC, symBinAddr: 0x412C70, symSize: 0x364 }
  - { offset: 0x3DA00F, size: 0x8, addend: 0x0, symName: __ZN5boost18condition_variable13do_wait_untilERNS_11unique_lockINS_5mutexEEERKNS_6detail23real_platform_timepointE, symObjAddr: 0x1550, symBinAddr: 0x412FD4, symSize: 0x114 }
  - { offset: 0x3DAA74, size: 0x8, addend: 0x0, symName: __ZN5boost18condition_variable13do_wait_untilERNS_11unique_lockINS_5mutexEEERKNS_6detail23real_platform_timepointE, symObjAddr: 0x1550, symBinAddr: 0x412FD4, symSize: 0x114 }
  - { offset: 0x3DAA7C, size: 0x8, addend: 0x0, symName: __ZNK5boost6thread8joinableEv, symObjAddr: 0x1664, symBinAddr: 0x4130E8, symSize: 0x8C }
  - { offset: 0x3DAD37, size: 0x8, addend: 0x0, symName: __ZNK5boost6thread8joinableEv, symObjAddr: 0x1664, symBinAddr: 0x4130E8, symSize: 0x8C }
  - { offset: 0x3DAD3F, size: 0x8, addend: 0x0, symName: __ZN5boost6thread6detachEv, symObjAddr: 0x16F0, symBinAddr: 0x413174, symSize: 0x1C4 }
  - { offset: 0x3DAF90, size: 0x8, addend: 0x0, symName: __ZN5boost6thread6detachEv, symObjAddr: 0x16F0, symBinAddr: 0x413174, symSize: 0x1C4 }
  - { offset: 0x3DAF98, size: 0x8, addend: 0x0, symName: __ZN5boost11this_thread21no_interruption_point6hidden18sleep_for_internalERKNS_6detail17platform_durationE, symObjAddr: 0x18B4, symBinAddr: 0x413338, symSize: 0x24 }
  - { offset: 0x3DB4B7, size: 0x8, addend: 0x0, symName: __ZN5boost6thread20hardware_concurrencyEv, symObjAddr: 0x18F0, symBinAddr: 0x413374, symSize: 0x4C }
  - { offset: 0x3DB4BF, size: 0x8, addend: 0x0, symName: __ZN5boost6thread20physical_concurrencyEv, symObjAddr: 0x193C, symBinAddr: 0x4133C0, symSize: 0x4C }
  - { offset: 0x3DB4FE, size: 0x8, addend: 0x0, symName: __ZN5boost6thread20physical_concurrencyEv, symObjAddr: 0x193C, symBinAddr: 0x4133C0, symSize: 0x4C }
  - { offset: 0x3DB506, size: 0x8, addend: 0x0, symName: __ZN5boost6thread9interruptEv, symObjAddr: 0x1988, symBinAddr: 0x41340C, symSize: 0x214 }
  - { offset: 0x3DB545, size: 0x8, addend: 0x0, symName: __ZN5boost6thread9interruptEv, symObjAddr: 0x1988, symBinAddr: 0x41340C, symSize: 0x214 }
  - { offset: 0x3DB54D, size: 0x8, addend: 0x0, symName: __ZN5boost7pthread25pthread_mutex_scoped_lockD1Ev, symObjAddr: 0x1B9C, symBinAddr: 0x413620, symSize: 0x44 }
  - { offset: 0x3DBC14, size: 0x8, addend: 0x0, symName: __ZN5boost7pthread25pthread_mutex_scoped_lockD1Ev, symObjAddr: 0x1B9C, symBinAddr: 0x413620, symSize: 0x44 }
  - { offset: 0x3DBC1C, size: 0x8, addend: 0x0, symName: __ZNK5boost6thread22interruption_requestedEv, symObjAddr: 0x1BE0, symBinAddr: 0x413664, symSize: 0x190 }
  - { offset: 0x3DBCBB, size: 0x8, addend: 0x0, symName: __ZNK5boost6thread22interruption_requestedEv, symObjAddr: 0x1BE0, symBinAddr: 0x413664, symSize: 0x190 }
  - { offset: 0x3DBCC3, size: 0x8, addend: 0x0, symName: __ZN5boost6thread13native_handleEv, symObjAddr: 0x1D70, symBinAddr: 0x4137F4, symSize: 0x1B4 }
  - { offset: 0x3DC266, size: 0x8, addend: 0x0, symName: __ZN5boost6thread13native_handleEv, symObjAddr: 0x1D70, symBinAddr: 0x4137F4, symSize: 0x1B4 }
  - { offset: 0x3DC26E, size: 0x8, addend: 0x0, symName: __ZN5boost11this_thread18interruption_pointEv, symObjAddr: 0x1F24, symBinAddr: 0x4139A8, symSize: 0x140 }
  - { offset: 0x3DC85C, size: 0x8, addend: 0x0, symName: __ZN5boost11this_thread20disable_interruptionC2Ev, symObjAddr: 0x219C, symBinAddr: 0x413C20, symSize: 0x58 }
  - { offset: 0x3DC864, size: 0x8, addend: 0x0, symName: __ZN5boost11this_thread20disable_interruptionC1Ev, symObjAddr: 0x21F4, symBinAddr: 0x413C78, symSize: 0x58 }
  - { offset: 0x3DC8DB, size: 0x8, addend: 0x0, symName: __ZN5boost11this_thread20disable_interruptionC1Ev, symObjAddr: 0x21F4, symBinAddr: 0x413C78, symSize: 0x58 }
  - { offset: 0x3DC8E3, size: 0x8, addend: 0x0, symName: __ZN5boost11this_thread20disable_interruptionD2Ev, symObjAddr: 0x224C, symBinAddr: 0x413CD0, symSize: 0x38 }
  - { offset: 0x3DC958, size: 0x8, addend: 0x0, symName: __ZN5boost11this_thread20disable_interruptionD2Ev, symObjAddr: 0x224C, symBinAddr: 0x413CD0, symSize: 0x38 }
  - { offset: 0x3DC960, size: 0x8, addend: 0x0, symName: __ZN5boost11this_thread20disable_interruptionD1Ev, symObjAddr: 0x2284, symBinAddr: 0x413D08, symSize: 0x38 }
  - { offset: 0x3DC9AD, size: 0x8, addend: 0x0, symName: __ZN5boost11this_thread20disable_interruptionD1Ev, symObjAddr: 0x2284, symBinAddr: 0x413D08, symSize: 0x38 }
  - { offset: 0x3DC9B5, size: 0x8, addend: 0x0, symName: __ZN5boost11this_thread20restore_interruptionC2ERNS0_20disable_interruptionE, symObjAddr: 0x22BC, symBinAddr: 0x413D40, symSize: 0x38 }
  - { offset: 0x3DCA2F, size: 0x8, addend: 0x0, symName: __ZN5boost11this_thread20restore_interruptionC2ERNS0_20disable_interruptionE, symObjAddr: 0x22BC, symBinAddr: 0x413D40, symSize: 0x38 }
  - { offset: 0x3DCA37, size: 0x8, addend: 0x0, symName: __ZN5boost11this_thread20restore_interruptionC1ERNS0_20disable_interruptionE, symObjAddr: 0x22F4, symBinAddr: 0x413D78, symSize: 0x38 }
  - { offset: 0x3DCAAB, size: 0x8, addend: 0x0, symName: __ZN5boost11this_thread20restore_interruptionC1ERNS0_20disable_interruptionE, symObjAddr: 0x22F4, symBinAddr: 0x413D78, symSize: 0x38 }
  - { offset: 0x3DCAB3, size: 0x8, addend: 0x0, symName: __ZN5boost11this_thread20restore_interruptionD2Ev, symObjAddr: 0x232C, symBinAddr: 0x413DB0, symSize: 0x34 }
  - { offset: 0x3DCB2A, size: 0x8, addend: 0x0, symName: __ZN5boost11this_thread20restore_interruptionD2Ev, symObjAddr: 0x232C, symBinAddr: 0x413DB0, symSize: 0x34 }
  - { offset: 0x3DCB32, size: 0x8, addend: 0x0, symName: __ZN5boost11this_thread20restore_interruptionD1Ev, symObjAddr: 0x2360, symBinAddr: 0x413DE4, symSize: 0x34 }
  - { offset: 0x3DCB7F, size: 0x8, addend: 0x0, symName: __ZN5boost11this_thread20restore_interruptionD1Ev, symObjAddr: 0x2360, symBinAddr: 0x413DE4, symSize: 0x34 }
  - { offset: 0x3DCB87, size: 0x8, addend: 0x0, symName: __ZN5boost6detail24add_thread_exit_functionEPNS0_25thread_exit_function_baseE, symObjAddr: 0x2394, symBinAddr: 0x413E18, symSize: 0x84 }
  - { offset: 0x3DD6E2, size: 0x8, addend: 0x0, symName: __ZN5boost10shared_ptrINS_6detail17shared_state_baseEED1Ev, symObjAddr: 0x2A28, symBinAddr: 0x414368, symSize: 0x7C }
  - { offset: 0x3DD6EA, size: 0x8, addend: 0x0, symName: __ZN5boost6detail16thread_data_base25notify_all_at_thread_exitEPNS_18condition_variableEPNS_5mutexE, symObjAddr: 0x2AA4, symBinAddr: 0x4143E4, symSize: 0x120 }
  - { offset: 0x3DDC68, size: 0x8, addend: 0x0, symName: __ZN5boost6detail16thread_data_base25notify_all_at_thread_exitEPNS_18condition_variableEPNS_5mutexE, symObjAddr: 0x2AA4, symBinAddr: 0x4143E4, symSize: 0x120 }
  - { offset: 0x3DDC70, size: 0x8, addend: 0x0, symName: __ZN5boost16exception_detail27get_static_exception_objectINS0_10bad_alloc_EEENS_13exception_ptrEv, symObjAddr: 0x2BC4, symBinAddr: 0x414504, symSize: 0x2A0 }
  - { offset: 0x3DE8C5, size: 0x8, addend: 0x0, symName: __ZN5boost13exception_ptrD1Ev, symObjAddr: 0x2E64, symBinAddr: 0x4147A4, symSize: 0x7C }
  - { offset: 0x3DE8CD, size: 0x8, addend: 0x0, symName: __ZN5boost16exception_detail27get_static_exception_objectINS0_14bad_exception_EEENS_13exception_ptrEv, symObjAddr: 0x2EE0, symBinAddr: 0x414820, symSize: 0x260 }
  - { offset: 0x3DED16, size: 0x8, addend: 0x0, symName: __ZN5boost6detail17shared_state_base22mark_finished_internalERNS_11unique_lockINS_5mutexEEE, symObjAddr: 0x3140, symBinAddr: 0x414A80, symSize: 0xD4 }
  - { offset: 0x3DED1E, size: 0x8, addend: 0x0, symName: __ZN5boost6detail12shared_countD1Ev, symObjAddr: 0x3214, symBinAddr: 0x414B54, symSize: 0x7C }
  - { offset: 0x3DEFF9, size: 0x8, addend: 0x0, symName: __ZN5boost6detail12shared_countD1Ev, symObjAddr: 0x3214, symBinAddr: 0x414B54, symSize: 0x7C }
  - { offset: 0x3DF001, size: 0x8, addend: 0x0, symName: __ZN5boost6detail12_GLOBAL__N_114tls_destructorEPv, symObjAddr: 0x3290, symBinAddr: 0x414BD0, symSize: 0x270 }
  - { offset: 0x3DF187, size: 0x8, addend: 0x0, symName: __ZN5boost6detail12_GLOBAL__N_114tls_destructorEPv, symObjAddr: 0x3290, symBinAddr: 0x414BD0, symSize: 0x270 }
  - { offset: 0x3DF18F, size: 0x8, addend: 0x0, symName: __ZN5boost15throw_exceptionINS_12bad_weak_ptrEEEvRKT_, symObjAddr: 0x3500, symBinAddr: 0x414E40, symSize: 0x48 }
  - { offset: 0x3DF9F9, size: 0x8, addend: 0x0, symName: __ZN5boost12bad_weak_ptrD1Ev, symObjAddr: 0x3548, symBinAddr: 0x414E88, symSize: 0x4 }
  - { offset: 0x3DFA01, size: 0x8, addend: 0x0, symName: __ZN5boost10wrapexceptINS_12bad_weak_ptrEED1Ev, symObjAddr: 0x354C, symBinAddr: 0x414E8C, symSize: 0x58 }
  - { offset: 0x3DFA2E, size: 0x8, addend: 0x0, symName: __ZN5boost12bad_weak_ptrD1Ev, symObjAddr: 0x3548, symBinAddr: 0x414E88, symSize: 0x4 }
  - { offset: 0x3DFA36, size: 0x8, addend: 0x0, symName: __ZN5boost10wrapexceptINS_12bad_weak_ptrEED1Ev, symObjAddr: 0x354C, symBinAddr: 0x414E8C, symSize: 0x58 }
  - { offset: 0x3DFA76, size: 0x8, addend: 0x0, symName: __ZN5boost10wrapexceptINS_12bad_weak_ptrEED1Ev, symObjAddr: 0x354C, symBinAddr: 0x414E8C, symSize: 0x58 }
  - { offset: 0x3DFA7E, size: 0x8, addend: 0x0, symName: __ZNK5boost10wrapexceptINS_12bad_weak_ptrEE5cloneEv, symObjAddr: 0x35A4, symBinAddr: 0x414EE4, symSize: 0xEC }
  - { offset: 0x3DFC58, size: 0x8, addend: 0x0, symName: __ZNK5boost10wrapexceptINS_12bad_weak_ptrEE5cloneEv, symObjAddr: 0x35A4, symBinAddr: 0x414EE4, symSize: 0xEC }
  - { offset: 0x3DFC60, size: 0x8, addend: 0x0, symName: __ZNK5boost10wrapexceptINS_12bad_weak_ptrEE7rethrowEv, symObjAddr: 0x3690, symBinAddr: 0x414FD0, symSize: 0x50 }
  - { offset: 0x3DFE51, size: 0x8, addend: 0x0, symName: __ZNK5boost10wrapexceptINS_12bad_weak_ptrEE7rethrowEv, symObjAddr: 0x3690, symBinAddr: 0x414FD0, symSize: 0x50 }
  - { offset: 0x3DFE6E, size: 0x8, addend: 0x0, symName: __ZNK5boost10wrapexceptINS_12bad_weak_ptrEE7rethrowEv, symObjAddr: 0x3690, symBinAddr: 0x414FD0, symSize: 0x50 }
  - { offset: 0x3DFE7D, size: 0x8, addend: 0x0, symName: __ZNK5boost10wrapexceptINS_12bad_weak_ptrEE7rethrowEv, symObjAddr: 0x3690, symBinAddr: 0x414FD0, symSize: 0x50 }
  - { offset: 0x3DFE85, size: 0x8, addend: 0x0, symName: __ZN5boost10wrapexceptINS_12bad_weak_ptrEED0Ev, symObjAddr: 0x36E0, symBinAddr: 0x415020, symSize: 0x58 }
  - { offset: 0x3DFED6, size: 0x8, addend: 0x0, symName: __ZN5boost10wrapexceptINS_12bad_weak_ptrEED0Ev, symObjAddr: 0x36E0, symBinAddr: 0x415020, symSize: 0x58 }
  - { offset: 0x3DFEDE, size: 0x8, addend: 0x0, symName: __ZThn8_N5boost10wrapexceptINS_12bad_weak_ptrEED1Ev, symObjAddr: 0x3738, symBinAddr: 0x415078, symSize: 0x50 }
  - { offset: 0x3DFFEC, size: 0x8, addend: 0x0, symName: __ZThn8_N5boost10wrapexceptINS_12bad_weak_ptrEED1Ev, symObjAddr: 0x3738, symBinAddr: 0x415078, symSize: 0x50 }
  - { offset: 0x3DFFF4, size: 0x8, addend: 0x0, symName: __ZThn8_N5boost10wrapexceptINS_12bad_weak_ptrEED0Ev, symObjAddr: 0x3788, symBinAddr: 0x4150C8, symSize: 0x5C }
  - { offset: 0x3E0019, size: 0x8, addend: 0x0, symName: __ZThn8_N5boost10wrapexceptINS_12bad_weak_ptrEED0Ev, symObjAddr: 0x3788, symBinAddr: 0x4150C8, symSize: 0x5C }
  - { offset: 0x3E003F, size: 0x8, addend: 0x0, symName: __ZThn8_N5boost10wrapexceptINS_12bad_weak_ptrEED0Ev, symObjAddr: 0x3788, symBinAddr: 0x4150C8, symSize: 0x5C }
  - { offset: 0x3E0127, size: 0x8, addend: 0x0, symName: __ZThn8_N5boost10wrapexceptINS_12bad_weak_ptrEED0Ev, symObjAddr: 0x3788, symBinAddr: 0x4150C8, symSize: 0x5C }
  - { offset: 0x3E012F, size: 0x8, addend: 0x0, symName: __ZNK5boost12bad_weak_ptr4whatEv, symObjAddr: 0x37E4, symBinAddr: 0x415124, symSize: 0xC }
  - { offset: 0x3E024B, size: 0x8, addend: 0x0, symName: __ZNK5boost12bad_weak_ptr4whatEv, symObjAddr: 0x37E4, symBinAddr: 0x415124, symSize: 0xC }
  - { offset: 0x3E0253, size: 0x8, addend: 0x0, symName: __ZThn16_N5boost10wrapexceptINS_12bad_weak_ptrEED1Ev, symObjAddr: 0x37F0, symBinAddr: 0x415130, symSize: 0x50 }
  - { offset: 0x3E0280, size: 0x8, addend: 0x0, symName: __ZThn16_N5boost10wrapexceptINS_12bad_weak_ptrEED1Ev, symObjAddr: 0x37F0, symBinAddr: 0x415130, symSize: 0x50 }
  - { offset: 0x3E0288, size: 0x8, addend: 0x0, symName: __ZThn16_N5boost10wrapexceptINS_12bad_weak_ptrEED0Ev, symObjAddr: 0x3840, symBinAddr: 0x415180, symSize: 0x5C }
  - { offset: 0x3E02AD, size: 0x8, addend: 0x0, symName: __ZThn16_N5boost10wrapexceptINS_12bad_weak_ptrEED0Ev, symObjAddr: 0x3840, symBinAddr: 0x415180, symSize: 0x5C }
  - { offset: 0x3E02D3, size: 0x8, addend: 0x0, symName: __ZThn16_N5boost10wrapexceptINS_12bad_weak_ptrEED0Ev, symObjAddr: 0x3840, symBinAddr: 0x415180, symSize: 0x5C }
  - { offset: 0x3E0398, size: 0x8, addend: 0x0, symName: __ZThn16_N5boost10wrapexceptINS_12bad_weak_ptrEED0Ev, symObjAddr: 0x3840, symBinAddr: 0x415180, symSize: 0x5C }
  - { offset: 0x3E04C0, size: 0x8, addend: 0x0, symName: __ZN5boost12bad_weak_ptrD0Ev, symObjAddr: 0x38A4, symBinAddr: 0x4151DC, symSize: 0x14 }
  - { offset: 0x3E04C8, size: 0x8, addend: 0x0, symName: __ZN5boost10wrapexceptINS_12bad_weak_ptrEEC1ERKS2_, symObjAddr: 0x38B8, symBinAddr: 0x4151F0, symSize: 0xAC }
  - { offset: 0x3E054C, size: 0x8, addend: 0x0, symName: __ZN5boost10wrapexceptINS_12bad_weak_ptrEEC1ERKS2_, symObjAddr: 0x38B8, symBinAddr: 0x4151F0, symSize: 0xAC }
  - { offset: 0x3E06E5, size: 0x8, addend: 0x0, symName: __ZN5boost6detail20interruption_checker16unlock_if_lockedEv, symObjAddr: 0x3E60, symBinAddr: 0x41529C, symSize: 0x14C }
  - { offset: 0x3E06ED, size: 0x8, addend: 0x0, symName: __ZN5boost15throw_exceptionINS_15condition_errorEEEvRKT_, symObjAddr: 0x3FAC, symBinAddr: 0x4153E8, symSize: 0x50 }
  - { offset: 0x3E0B09, size: 0x8, addend: 0x0, symName: __ZN5boost15condition_errorC1EiPKc, symObjAddr: 0x3FFC, symBinAddr: 0x415438, symSize: 0xB0 }
  - { offset: 0x3E0B11, size: 0x8, addend: 0x0, symName: __ZN5boost15condition_errorD1Ev, symObjAddr: 0x40AC, symBinAddr: 0x4154E8, symSize: 0x4 }
  - { offset: 0x3E0C1F, size: 0x8, addend: 0x0, symName: __ZN5boost15condition_errorD1Ev, symObjAddr: 0x40AC, symBinAddr: 0x4154E8, symSize: 0x4 }
  - { offset: 0x3E0C27, size: 0x8, addend: 0x0, symName: __ZN5boost6detail20interruption_checkerC2EP23_opaque_pthread_mutex_tP22_opaque_pthread_cond_t, symObjAddr: 0x40B0, symBinAddr: 0x4154EC, symSize: 0x1A8 }
  - { offset: 0x3E0C54, size: 0x8, addend: 0x0, symName: __ZN5boost15condition_errorD1Ev, symObjAddr: 0x40AC, symBinAddr: 0x4154E8, symSize: 0x4 }
  - { offset: 0x3E0C5C, size: 0x8, addend: 0x0, symName: __ZN5boost6detail20interruption_checkerC2EP23_opaque_pthread_mutex_tP22_opaque_pthread_cond_t, symObjAddr: 0x40B0, symBinAddr: 0x4154EC, symSize: 0x1A8 }
  - { offset: 0x3E0C7D, size: 0x8, addend: 0x0, symName: __ZN5boost15condition_errorD1Ev, symObjAddr: 0x40AC, symBinAddr: 0x4154E8, symSize: 0x4 }
  - { offset: 0x3E0C85, size: 0x8, addend: 0x0, symName: __ZN5boost6detail20interruption_checkerC2EP23_opaque_pthread_mutex_tP22_opaque_pthread_cond_t, symObjAddr: 0x40B0, symBinAddr: 0x4154EC, symSize: 0x1A8 }
  - { offset: 0x3E0CC0, size: 0x8, addend: 0x0, symName: __ZN5boost6detail20interruption_checkerC2EP23_opaque_pthread_mutex_tP22_opaque_pthread_cond_t, symObjAddr: 0x40B0, symBinAddr: 0x4154EC, symSize: 0x1A8 }
  - { offset: 0x3E0CC8, size: 0x8, addend: 0x0, symName: __ZN5boost11unique_lockINS_5mutexEE6unlockEv, symObjAddr: 0x4258, symBinAddr: 0x415694, symSize: 0xB0 }
  - { offset: 0x3E10B6, size: 0x8, addend: 0x0, symName: __ZN5boost11unique_lockINS_5mutexEE6unlockEv, symObjAddr: 0x4258, symBinAddr: 0x415694, symSize: 0xB0 }
  - { offset: 0x3E10BE, size: 0x8, addend: 0x0, symName: __ZN5boost15throw_exceptionINS_10lock_errorEEEvRKT_, symObjAddr: 0x4308, symBinAddr: 0x415744, symSize: 0x50 }
  - { offset: 0x3E116F, size: 0x8, addend: 0x0, symName: __ZN5boost15throw_exceptionINS_10lock_errorEEEvRKT_, symObjAddr: 0x4308, symBinAddr: 0x415744, symSize: 0x50 }
  - { offset: 0x3E118B, size: 0x8, addend: 0x0, symName: __ZN5boost15throw_exceptionINS_10lock_errorEEEvRKT_, symObjAddr: 0x4308, symBinAddr: 0x415744, symSize: 0x50 }
  - { offset: 0x3E11A8, size: 0x8, addend: 0x0, symName: __ZN5boost15throw_exceptionINS_10lock_errorEEEvRKT_, symObjAddr: 0x4308, symBinAddr: 0x415744, symSize: 0x50 }
  - { offset: 0x3E11C5, size: 0x8, addend: 0x0, symName: __ZN5boost15throw_exceptionINS_10lock_errorEEEvRKT_, symObjAddr: 0x4308, symBinAddr: 0x415744, symSize: 0x50 }
  - { offset: 0x3E11D6, size: 0x8, addend: 0x0, symName: __ZN5boost10lock_errorC1EiPKc, symObjAddr: 0x4358, symBinAddr: 0x415794, symSize: 0xB0 }
  - { offset: 0x3E11DE, size: 0x8, addend: 0x0, symName: __ZN5boost10lock_errorD1Ev, symObjAddr: 0x4408, symBinAddr: 0x415844, symSize: 0x4 }
  - { offset: 0x3E12F5, size: 0x8, addend: 0x0, symName: __ZN5boost10lock_errorD1Ev, symObjAddr: 0x4408, symBinAddr: 0x415844, symSize: 0x4 }
  - { offset: 0x3E12FD, size: 0x8, addend: 0x0, symName: __ZN5boost10wrapexceptINS_10lock_errorEEC1ERKS1_, symObjAddr: 0x440C, symBinAddr: 0x415848, symSize: 0x80 }
  - { offset: 0x3E132A, size: 0x8, addend: 0x0, symName: __ZN5boost10lock_errorD1Ev, symObjAddr: 0x4408, symBinAddr: 0x415844, symSize: 0x4 }
  - { offset: 0x3E1332, size: 0x8, addend: 0x0, symName: __ZN5boost10wrapexceptINS_10lock_errorEEC1ERKS1_, symObjAddr: 0x440C, symBinAddr: 0x415848, symSize: 0x80 }
  - { offset: 0x3E1353, size: 0x8, addend: 0x0, symName: __ZN5boost10lock_errorD1Ev, symObjAddr: 0x4408, symBinAddr: 0x415844, symSize: 0x4 }
  - { offset: 0x3E135B, size: 0x8, addend: 0x0, symName: __ZN5boost10wrapexceptINS_10lock_errorEEC1ERKS1_, symObjAddr: 0x440C, symBinAddr: 0x415848, symSize: 0x80 }
  - { offset: 0x3E137C, size: 0x8, addend: 0x0, symName: __ZN5boost10lock_errorD1Ev, symObjAddr: 0x4408, symBinAddr: 0x415844, symSize: 0x4 }
  - { offset: 0x3E1384, size: 0x8, addend: 0x0, symName: __ZN5boost10wrapexceptINS_10lock_errorEEC1ERKS1_, symObjAddr: 0x440C, symBinAddr: 0x415848, symSize: 0x80 }
  - { offset: 0x3E14A0, size: 0x8, addend: 0x0, symName: __ZN5boost10wrapexceptINS_10lock_errorEEC1ERKS1_, symObjAddr: 0x440C, symBinAddr: 0x415848, symSize: 0x80 }
  - { offset: 0x3E14A8, size: 0x8, addend: 0x0, symName: __ZN5boost10wrapexceptINS_10lock_errorEED1Ev, symObjAddr: 0x448C, symBinAddr: 0x4158C8, symSize: 0x58 }
  - { offset: 0x3E160B, size: 0x8, addend: 0x0, symName: __ZN5boost10wrapexceptINS_10lock_errorEED1Ev, symObjAddr: 0x448C, symBinAddr: 0x4158C8, symSize: 0x58 }
  - { offset: 0x3E1613, size: 0x8, addend: 0x0, symName: __ZNK5boost10wrapexceptINS_10lock_errorEE5cloneEv, symObjAddr: 0x44E4, symBinAddr: 0x415920, symSize: 0x110 }
  - { offset: 0x3E1813, size: 0x8, addend: 0x0, symName: __ZNK5boost10wrapexceptINS_10lock_errorEE5cloneEv, symObjAddr: 0x44E4, symBinAddr: 0x415920, symSize: 0x110 }
  - { offset: 0x3E181B, size: 0x8, addend: 0x0, symName: __ZNK5boost10wrapexceptINS_10lock_errorEE7rethrowEv, symObjAddr: 0x45F4, symBinAddr: 0x415A30, symSize: 0x50 }
  - { offset: 0x3E1AF8, size: 0x8, addend: 0x0, symName: __ZNK5boost10wrapexceptINS_10lock_errorEE7rethrowEv, symObjAddr: 0x45F4, symBinAddr: 0x415A30, symSize: 0x50 }
  - { offset: 0x3E1B15, size: 0x8, addend: 0x0, symName: __ZNK5boost10wrapexceptINS_10lock_errorEE7rethrowEv, symObjAddr: 0x45F4, symBinAddr: 0x415A30, symSize: 0x50 }
  - { offset: 0x3E1B24, size: 0x8, addend: 0x0, symName: __ZNK5boost10wrapexceptINS_10lock_errorEE7rethrowEv, symObjAddr: 0x45F4, symBinAddr: 0x415A30, symSize: 0x50 }
  - { offset: 0x3E1B2C, size: 0x8, addend: 0x0, symName: __ZN5boost10wrapexceptINS_10lock_errorEED0Ev, symObjAddr: 0x4644, symBinAddr: 0x415A80, symSize: 0x58 }
  - { offset: 0x3E1B7D, size: 0x8, addend: 0x0, symName: __ZN5boost10wrapexceptINS_10lock_errorEED0Ev, symObjAddr: 0x4644, symBinAddr: 0x415A80, symSize: 0x58 }
  - { offset: 0x3E1B85, size: 0x8, addend: 0x0, symName: __ZThn8_N5boost10wrapexceptINS_10lock_errorEED1Ev, symObjAddr: 0x469C, symBinAddr: 0x415AD8, symSize: 0x50 }
  - { offset: 0x3E1CE7, size: 0x8, addend: 0x0, symName: __ZThn8_N5boost10wrapexceptINS_10lock_errorEED1Ev, symObjAddr: 0x469C, symBinAddr: 0x415AD8, symSize: 0x50 }
  - { offset: 0x3E1CEF, size: 0x8, addend: 0x0, symName: __ZThn8_N5boost10wrapexceptINS_10lock_errorEED0Ev, symObjAddr: 0x46EC, symBinAddr: 0x415B28, symSize: 0x5C }
  - { offset: 0x3E1D14, size: 0x8, addend: 0x0, symName: __ZThn8_N5boost10wrapexceptINS_10lock_errorEED0Ev, symObjAddr: 0x46EC, symBinAddr: 0x415B28, symSize: 0x5C }
  - { offset: 0x3E1D3A, size: 0x8, addend: 0x0, symName: __ZThn8_N5boost10wrapexceptINS_10lock_errorEED0Ev, symObjAddr: 0x46EC, symBinAddr: 0x415B28, symSize: 0x5C }
  - { offset: 0x3E1E7A, size: 0x8, addend: 0x0, symName: __ZThn8_N5boost10wrapexceptINS_10lock_errorEED0Ev, symObjAddr: 0x46EC, symBinAddr: 0x415B28, symSize: 0x5C }
  - { offset: 0x3E1E82, size: 0x8, addend: 0x0, symName: __ZThn48_N5boost10wrapexceptINS_10lock_errorEED1Ev, symObjAddr: 0x4748, symBinAddr: 0x415B84, symSize: 0x50 }
  - { offset: 0x3E1FF2, size: 0x8, addend: 0x0, symName: __ZThn48_N5boost10wrapexceptINS_10lock_errorEED1Ev, symObjAddr: 0x4748, symBinAddr: 0x415B84, symSize: 0x50 }
  - { offset: 0x3E1FFA, size: 0x8, addend: 0x0, symName: __ZThn48_N5boost10wrapexceptINS_10lock_errorEED0Ev, symObjAddr: 0x4798, symBinAddr: 0x415BD4, symSize: 0x5C }
  - { offset: 0x3E201F, size: 0x8, addend: 0x0, symName: __ZThn48_N5boost10wrapexceptINS_10lock_errorEED0Ev, symObjAddr: 0x4798, symBinAddr: 0x415BD4, symSize: 0x5C }
  - { offset: 0x3E2045, size: 0x8, addend: 0x0, symName: __ZThn48_N5boost10wrapexceptINS_10lock_errorEED0Ev, symObjAddr: 0x4798, symBinAddr: 0x415BD4, symSize: 0x5C }
  - { offset: 0x3E215E, size: 0x8, addend: 0x0, symName: __ZThn48_N5boost10wrapexceptINS_10lock_errorEED0Ev, symObjAddr: 0x4798, symBinAddr: 0x415BD4, symSize: 0x5C }
  - { offset: 0x3E2166, size: 0x8, addend: 0x0, symName: __ZN5boost10lock_errorD0Ev, symObjAddr: 0x47F4, symBinAddr: 0x415C30, symSize: 0x14 }
  - { offset: 0x3E22DA, size: 0x8, addend: 0x0, symName: __ZN5boost10lock_errorD0Ev, symObjAddr: 0x47F4, symBinAddr: 0x415C30, symSize: 0x14 }
  - { offset: 0x3E22E2, size: 0x8, addend: 0x0, symName: __ZN5boost6system12system_errorD1Ev, symObjAddr: 0x4808, symBinAddr: 0x415C44, symSize: 0x4 }
  - { offset: 0x3E23B8, size: 0x8, addend: 0x0, symName: __ZN5boost6system12system_errorD1Ev, symObjAddr: 0x4808, symBinAddr: 0x415C44, symSize: 0x4 }
  - { offset: 0x3E23C0, size: 0x8, addend: 0x0, symName: __ZN5boost6system12system_errorD0Ev, symObjAddr: 0x480C, symBinAddr: 0x415C48, symSize: 0x14 }
  - { offset: 0x3E23ED, size: 0x8, addend: 0x0, symName: __ZN5boost6system12system_errorD1Ev, symObjAddr: 0x4808, symBinAddr: 0x415C44, symSize: 0x4 }
  - { offset: 0x3E23F5, size: 0x8, addend: 0x0, symName: __ZN5boost6system12system_errorD0Ev, symObjAddr: 0x480C, symBinAddr: 0x415C48, symSize: 0x14 }
  - { offset: 0x3E2435, size: 0x8, addend: 0x0, symName: __ZN5boost6system12system_errorD0Ev, symObjAddr: 0x480C, symBinAddr: 0x415C48, symSize: 0x14 }
  - { offset: 0x3E243D, size: 0x8, addend: 0x0, symName: __ZN5boost10wrapexceptINS_10lock_errorEEC1ERKS2_, symObjAddr: 0x4820, symBinAddr: 0x415C5C, symSize: 0xE0 }
  - { offset: 0x3E24C1, size: 0x8, addend: 0x0, symName: __ZN5boost10wrapexceptINS_10lock_errorEEC1ERKS2_, symObjAddr: 0x4820, symBinAddr: 0x415C5C, symSize: 0xE0 }
  - { offset: 0x3E24C9, size: 0x8, addend: 0x0, symName: __ZN5boost6system12system_errorC2ERKNS0_10error_codeEPKc, symObjAddr: 0x4900, symBinAddr: 0x415D3C, symSize: 0x250 }
  - { offset: 0x3E26A6, size: 0x8, addend: 0x0, symName: __ZN5boost6system12system_errorC2ERKNS0_10error_codeEPKc, symObjAddr: 0x4900, symBinAddr: 0x415D3C, symSize: 0x250 }
  - { offset: 0x3E26CF, size: 0x8, addend: 0x0, symName: __ZN5boost6system12system_errorC2ERKNS0_10error_codeEPKc, symObjAddr: 0x4900, symBinAddr: 0x415D3C, symSize: 0x250 }
  - { offset: 0x3E26F8, size: 0x8, addend: 0x0, symName: __ZN5boost6system12system_errorC2ERKNS0_10error_codeEPKc, symObjAddr: 0x4900, symBinAddr: 0x415D3C, symSize: 0x250 }
  - { offset: 0x3E2C02, size: 0x8, addend: 0x0, symName: __ZN5boost6system12system_errorC2ERKNS0_10error_codeEPKc, symObjAddr: 0x4900, symBinAddr: 0x415D3C, symSize: 0x250 }
  - { offset: 0x3E2C0A, size: 0x8, addend: 0x0, symName: __ZNK5boost6system6detail22generic_error_category4nameEv, symObjAddr: 0x4B50, symBinAddr: 0x415F8C, symSize: 0xC }
  - { offset: 0x3E3E48, size: 0x8, addend: 0x0, symName: __ZNK5boost6system6detail22generic_error_category4nameEv, symObjAddr: 0x4B50, symBinAddr: 0x415F8C, symSize: 0xC }
  - { offset: 0x3E3E7E, size: 0x8, addend: 0x0, symName: __ZNK5boost6system6detail22generic_error_category4nameEv, symObjAddr: 0x4B50, symBinAddr: 0x415F8C, symSize: 0xC }
  - { offset: 0x3E3EB4, size: 0x8, addend: 0x0, symName: __ZNK5boost6system6detail22generic_error_category4nameEv, symObjAddr: 0x4B50, symBinAddr: 0x415F8C, symSize: 0xC }
  - { offset: 0x3E3EE9, size: 0x8, addend: 0x0, symName: __ZNK5boost6system6detail22generic_error_category4nameEv, symObjAddr: 0x4B50, symBinAddr: 0x415F8C, symSize: 0xC }
  - { offset: 0x3E3F15, size: 0x8, addend: 0x0, symName: __ZNK5boost6system6detail22generic_error_category4nameEv, symObjAddr: 0x4B50, symBinAddr: 0x415F8C, symSize: 0xC }
  - { offset: 0x3E3F39, size: 0x8, addend: 0x0, symName: __ZNK5boost6system6detail22generic_error_category4nameEv, symObjAddr: 0x4B50, symBinAddr: 0x415F8C, symSize: 0xC }
  - { offset: 0x3E3F41, size: 0x8, addend: 0x0, symName: __ZNK5boost6system14error_category23default_error_conditionEi, symObjAddr: 0x4B5C, symBinAddr: 0x415F98, symSize: 0x10 }
  - { offset: 0x3E3F6E, size: 0x8, addend: 0x0, symName: __ZNK5boost6system14error_category23default_error_conditionEi, symObjAddr: 0x4B5C, symBinAddr: 0x415F98, symSize: 0x10 }
  - { offset: 0x3E3F76, size: 0x8, addend: 0x0, symName: __ZNK5boost6system14error_category10equivalentEiRKNS0_15error_conditionE, symObjAddr: 0x4B6C, symBinAddr: 0x415FA8, symSize: 0xB4 }
  - { offset: 0x3E3FE1, size: 0x8, addend: 0x0, symName: __ZNK5boost6system14error_category10equivalentEiRKNS0_15error_conditionE, symObjAddr: 0x4B6C, symBinAddr: 0x415FA8, symSize: 0xB4 }
  - { offset: 0x3E3FE9, size: 0x8, addend: 0x0, symName: __ZNK5boost6system14error_category10equivalentERKNS0_10error_codeEi, symObjAddr: 0x4C20, symBinAddr: 0x41605C, symSize: 0xD4 }
  - { offset: 0x3E4186, size: 0x8, addend: 0x0, symName: __ZNK5boost6system14error_category10equivalentERKNS0_10error_codeEi, symObjAddr: 0x4C20, symBinAddr: 0x41605C, symSize: 0xD4 }
  - { offset: 0x3E418E, size: 0x8, addend: 0x0, symName: __ZNK5boost6system6detail22generic_error_category7messageEi, symObjAddr: 0x4CF4, symBinAddr: 0x416130, symSize: 0xC4 }
  - { offset: 0x3E42E0, size: 0x8, addend: 0x0, symName: __ZNK5boost6system6detail22generic_error_category7messageEi, symObjAddr: 0x4CF4, symBinAddr: 0x416130, symSize: 0xC4 }
  - { offset: 0x3E42E8, size: 0x8, addend: 0x0, symName: __ZNK5boost6system6detail22generic_error_category7messageEiPcm, symObjAddr: 0x4DB8, symBinAddr: 0x4161F4, symSize: 0x70 }
  - { offset: 0x3E4854, size: 0x8, addend: 0x0, symName: __ZNK5boost6system6detail22generic_error_category7messageEiPcm, symObjAddr: 0x4DB8, symBinAddr: 0x4161F4, symSize: 0x70 }
  - { offset: 0x3E485C, size: 0x8, addend: 0x0, symName: __ZNK5boost6system14error_category6failedEi, symObjAddr: 0x4E28, symBinAddr: 0x416264, symSize: 0xC }
  - { offset: 0x3E490F, size: 0x8, addend: 0x0, symName: __ZNK5boost6system14error_category6failedEi, symObjAddr: 0x4E28, symBinAddr: 0x416264, symSize: 0xC }
  - { offset: 0x3E49F2, size: 0x8, addend: 0x0, symName: __ZNK5boost6system10error_code4whatEv, symObjAddr: 0x4EE4, symBinAddr: 0x416270, symSize: 0x16C }
  - { offset: 0x3E49FA, size: 0x8, addend: 0x0, symName: __ZNK5boost6system10error_code7messageEv, symObjAddr: 0x5050, symBinAddr: 0x4163DC, symSize: 0x110 }
  - { offset: 0x3E51A8, size: 0x8, addend: 0x0, symName: __ZNK5boost6system10error_code7messageEv, symObjAddr: 0x5050, symBinAddr: 0x4163DC, symSize: 0x110 }
  - { offset: 0x3E51D4, size: 0x8, addend: 0x0, symName: __ZNK5boost6system10error_code7messageEv, symObjAddr: 0x5050, symBinAddr: 0x4163DC, symSize: 0x110 }
  - { offset: 0x3E5200, size: 0x8, addend: 0x0, symName: __ZNK5boost6system10error_code7messageEv, symObjAddr: 0x5050, symBinAddr: 0x4163DC, symSize: 0x110 }
  - { offset: 0x3E5235, size: 0x8, addend: 0x0, symName: __ZNK5boost6system10error_code7messageEv, symObjAddr: 0x5050, symBinAddr: 0x4163DC, symSize: 0x110 }
  - { offset: 0x3E5261, size: 0x8, addend: 0x0, symName: __ZNK5boost6system10error_code7messageEv, symObjAddr: 0x5050, symBinAddr: 0x4163DC, symSize: 0x110 }
  - { offset: 0x3E52A4, size: 0x8, addend: 0x0, symName: __ZNK5boost6system10error_code7messageEv, symObjAddr: 0x5050, symBinAddr: 0x4163DC, symSize: 0x110 }
  - { offset: 0x3E52AC, size: 0x8, addend: 0x0, symName: __ZNK5boost6system10error_code9to_stringEv, symObjAddr: 0x5160, symBinAddr: 0x4164EC, symSize: 0x20C }
  - { offset: 0x3E5934, size: 0x8, addend: 0x0, symName: __ZNK5boost6system10error_code9to_stringEv, symObjAddr: 0x5160, symBinAddr: 0x4164EC, symSize: 0x20C }
  - { offset: 0x3E593C, size: 0x8, addend: 0x0, symName: __ZNK5boost15source_location9to_stringEv, symObjAddr: 0x536C, symBinAddr: 0x4166F8, symSize: 0x1D4 }
  - { offset: 0x3E6557, size: 0x8, addend: 0x0, symName: __ZNK5boost15source_location9to_stringEv, symObjAddr: 0x536C, symBinAddr: 0x4166F8, symSize: 0x1D4 }
  - { offset: 0x3E655F, size: 0x8, addend: 0x0, symName: __ZN5boost6system6detail8snprintfEPcmPKcz, symObjAddr: 0x5540, symBinAddr: 0x4168CC, symSize: 0x28 }
  - { offset: 0x3E7265, size: 0x8, addend: 0x0, symName: __ZN5boost11unique_lockINS_5mutexEE4lockEv, symObjAddr: 0x5568, symBinAddr: 0x4168F4, symSize: 0xEC }
  - { offset: 0x3E726D, size: 0x8, addend: 0x0, symName: __ZN5boost10wrapexceptINS_15condition_errorEEC1ERKS1_, symObjAddr: 0x5654, symBinAddr: 0x4169E0, symSize: 0x80 }
  - { offset: 0x3E736C, size: 0x8, addend: 0x0, symName: __ZN5boost10wrapexceptINS_15condition_errorEEC1ERKS1_, symObjAddr: 0x5654, symBinAddr: 0x4169E0, symSize: 0x80 }
  - { offset: 0x3E7374, size: 0x8, addend: 0x0, symName: __ZN5boost10wrapexceptINS_15condition_errorEED1Ev, symObjAddr: 0x56D4, symBinAddr: 0x416A60, symSize: 0x58 }
  - { offset: 0x3E74AD, size: 0x8, addend: 0x0, symName: __ZN5boost10wrapexceptINS_15condition_errorEED1Ev, symObjAddr: 0x56D4, symBinAddr: 0x416A60, symSize: 0x58 }
  - { offset: 0x3E74B5, size: 0x8, addend: 0x0, symName: __ZNK5boost10wrapexceptINS_15condition_errorEE5cloneEv, symObjAddr: 0x572C, symBinAddr: 0x416AB8, symSize: 0x110 }
  - { offset: 0x3E768B, size: 0x8, addend: 0x0, symName: __ZNK5boost10wrapexceptINS_15condition_errorEE5cloneEv, symObjAddr: 0x572C, symBinAddr: 0x416AB8, symSize: 0x110 }
  - { offset: 0x3E7693, size: 0x8, addend: 0x0, symName: __ZNK5boost10wrapexceptINS_15condition_errorEE7rethrowEv, symObjAddr: 0x583C, symBinAddr: 0x416BC8, symSize: 0x50 }
  - { offset: 0x3E790E, size: 0x8, addend: 0x0, symName: __ZNK5boost10wrapexceptINS_15condition_errorEE7rethrowEv, symObjAddr: 0x583C, symBinAddr: 0x416BC8, symSize: 0x50 }
  - { offset: 0x3E792B, size: 0x8, addend: 0x0, symName: __ZNK5boost10wrapexceptINS_15condition_errorEE7rethrowEv, symObjAddr: 0x583C, symBinAddr: 0x416BC8, symSize: 0x50 }
  - { offset: 0x3E793A, size: 0x8, addend: 0x0, symName: __ZNK5boost10wrapexceptINS_15condition_errorEE7rethrowEv, symObjAddr: 0x583C, symBinAddr: 0x416BC8, symSize: 0x50 }
  - { offset: 0x3E7942, size: 0x8, addend: 0x0, symName: __ZN5boost10wrapexceptINS_15condition_errorEED0Ev, symObjAddr: 0x588C, symBinAddr: 0x416C18, symSize: 0x58 }
  - { offset: 0x3E7993, size: 0x8, addend: 0x0, symName: __ZN5boost10wrapexceptINS_15condition_errorEED0Ev, symObjAddr: 0x588C, symBinAddr: 0x416C18, symSize: 0x58 }
  - { offset: 0x3E799B, size: 0x8, addend: 0x0, symName: __ZThn8_N5boost10wrapexceptINS_15condition_errorEED1Ev, symObjAddr: 0x58E4, symBinAddr: 0x416C70, symSize: 0x50 }
  - { offset: 0x3E7AD3, size: 0x8, addend: 0x0, symName: __ZThn8_N5boost10wrapexceptINS_15condition_errorEED1Ev, symObjAddr: 0x58E4, symBinAddr: 0x416C70, symSize: 0x50 }
  - { offset: 0x3E7ADB, size: 0x8, addend: 0x0, symName: __ZThn8_N5boost10wrapexceptINS_15condition_errorEED0Ev, symObjAddr: 0x5934, symBinAddr: 0x416CC0, symSize: 0x5C }
  - { offset: 0x3E7B00, size: 0x8, addend: 0x0, symName: __ZThn8_N5boost10wrapexceptINS_15condition_errorEED0Ev, symObjAddr: 0x5934, symBinAddr: 0x416CC0, symSize: 0x5C }
  - { offset: 0x3E7B26, size: 0x8, addend: 0x0, symName: __ZThn8_N5boost10wrapexceptINS_15condition_errorEED0Ev, symObjAddr: 0x5934, symBinAddr: 0x416CC0, symSize: 0x5C }
  - { offset: 0x3E7C3A, size: 0x8, addend: 0x0, symName: __ZThn8_N5boost10wrapexceptINS_15condition_errorEED0Ev, symObjAddr: 0x5934, symBinAddr: 0x416CC0, symSize: 0x5C }
  - { offset: 0x3E7C42, size: 0x8, addend: 0x0, symName: __ZThn48_N5boost10wrapexceptINS_15condition_errorEED1Ev, symObjAddr: 0x5990, symBinAddr: 0x416D1C, symSize: 0x50 }
  - { offset: 0x3E7D88, size: 0x8, addend: 0x0, symName: __ZThn48_N5boost10wrapexceptINS_15condition_errorEED1Ev, symObjAddr: 0x5990, symBinAddr: 0x416D1C, symSize: 0x50 }
  - { offset: 0x3E7D90, size: 0x8, addend: 0x0, symName: __ZThn48_N5boost10wrapexceptINS_15condition_errorEED0Ev, symObjAddr: 0x59E0, symBinAddr: 0x416D6C, symSize: 0x5C }
  - { offset: 0x3E7DB5, size: 0x8, addend: 0x0, symName: __ZThn48_N5boost10wrapexceptINS_15condition_errorEED0Ev, symObjAddr: 0x59E0, symBinAddr: 0x416D6C, symSize: 0x5C }
  - { offset: 0x3E7DDB, size: 0x8, addend: 0x0, symName: __ZThn48_N5boost10wrapexceptINS_15condition_errorEED0Ev, symObjAddr: 0x59E0, symBinAddr: 0x416D6C, symSize: 0x5C }
  - { offset: 0x3E7ECA, size: 0x8, addend: 0x0, symName: __ZThn48_N5boost10wrapexceptINS_15condition_errorEED0Ev, symObjAddr: 0x59E0, symBinAddr: 0x416D6C, symSize: 0x5C }
  - { offset: 0x3E7ED2, size: 0x8, addend: 0x0, symName: __ZN5boost15condition_errorD0Ev, symObjAddr: 0x5A3C, symBinAddr: 0x416DC8, symSize: 0x14 }
  - { offset: 0x3E801C, size: 0x8, addend: 0x0, symName: __ZN5boost15condition_errorD0Ev, symObjAddr: 0x5A3C, symBinAddr: 0x416DC8, symSize: 0x14 }
  - { offset: 0x3E8024, size: 0x8, addend: 0x0, symName: __ZN5boost10wrapexceptINS_15condition_errorEEC1ERKS2_, symObjAddr: 0x5A50, symBinAddr: 0x416DDC, symSize: 0xE0 }
  - { offset: 0x3E80D2, size: 0x8, addend: 0x0, symName: __ZN5boost10wrapexceptINS_15condition_errorEEC1ERKS2_, symObjAddr: 0x5A50, symBinAddr: 0x416DDC, symSize: 0xE0 }
  - { offset: 0x3E80DA, size: 0x8, addend: 0x0, symName: __ZNSt3__16vectorIN5boost10shared_ptrINS1_6detail17shared_state_baseEEENS_9allocatorIS5_EEE21__push_back_slow_pathIRKS5_EEPS5_OT_, symObjAddr: 0x5B30, symBinAddr: 0x416EBC, symSize: 0x184 }
  - { offset: 0x3E828B, size: 0x8, addend: 0x0, symName: __ZNSt3__16vectorIN5boost10shared_ptrINS1_6detail17shared_state_baseEEENS_9allocatorIS5_EEE21__push_back_slow_pathIRKS5_EEPS5_OT_, symObjAddr: 0x5B30, symBinAddr: 0x416EBC, symSize: 0x184 }
  - { offset: 0x3E82B4, size: 0x8, addend: 0x0, symName: __ZNSt3__16vectorIN5boost10shared_ptrINS1_6detail17shared_state_baseEEENS_9allocatorIS5_EEE21__push_back_slow_pathIRKS5_EEPS5_OT_, symObjAddr: 0x5B30, symBinAddr: 0x416EBC, symSize: 0x184 }
  - { offset: 0x3E867B, size: 0x8, addend: 0x0, symName: __ZNSt3__16vectorIN5boost10shared_ptrINS1_6detail17shared_state_baseEEENS_9allocatorIS5_EEE21__push_back_slow_pathIRKS5_EEPS5_OT_, symObjAddr: 0x5B30, symBinAddr: 0x416EBC, symSize: 0x184 }
  - { offset: 0x3E8E8B, size: 0x8, addend: 0x0, symName: __ZN5boost16exception_detail10clone_implINS0_10bad_alloc_EEC1ERKS3_, symObjAddr: 0x5D1C, symBinAddr: 0x417040, symSize: 0x80 }
  - { offset: 0x3E8E93, size: 0x8, addend: 0x0, symName: __ZN5boost10shared_ptrIKNS_16exception_detail10clone_baseEED1Ev, symObjAddr: 0x5D9C, symBinAddr: 0x4170C0, symSize: 0x7C }
  - { offset: 0x3E8FBA, size: 0x8, addend: 0x0, symName: __ZN5boost10shared_ptrIKNS_16exception_detail10clone_baseEED1Ev, symObjAddr: 0x5D9C, symBinAddr: 0x4170C0, symSize: 0x7C }
  - { offset: 0x3E8FC2, size: 0x8, addend: 0x0, symName: __ZN5boost16exception_detail10clone_implINS0_10bad_alloc_EED1Ev, symObjAddr: 0x5E18, symBinAddr: 0x41713C, symSize: 0x58 }
  - { offset: 0x3E90ED, size: 0x8, addend: 0x0, symName: __ZN5boost16exception_detail10clone_implINS0_10bad_alloc_EED1Ev, symObjAddr: 0x5E18, symBinAddr: 0x41713C, symSize: 0x58 }
  - { offset: 0x3E90F5, size: 0x8, addend: 0x0, symName: __ZN5boost16exception_detail10bad_alloc_D1Ev, symObjAddr: 0x5E70, symBinAddr: 0x417194, symSize: 0x58 }
  - { offset: 0x3E91DF, size: 0x8, addend: 0x0, symName: __ZN5boost16exception_detail10bad_alloc_D1Ev, symObjAddr: 0x5E70, symBinAddr: 0x417194, symSize: 0x58 }
  - { offset: 0x3E91E7, size: 0x8, addend: 0x0, symName: __ZN5boost16exception_detail10bad_alloc_D0Ev, symObjAddr: 0x5EC8, symBinAddr: 0x4171EC, symSize: 0x50 }
  - { offset: 0x3E92AF, size: 0x8, addend: 0x0, symName: __ZN5boost16exception_detail10bad_alloc_D0Ev, symObjAddr: 0x5EC8, symBinAddr: 0x4171EC, symSize: 0x50 }
  - { offset: 0x3E92B7, size: 0x8, addend: 0x0, symName: __ZThn40_N5boost16exception_detail10bad_alloc_D1Ev, symObjAddr: 0x5F18, symBinAddr: 0x41723C, symSize: 0x50 }
  - { offset: 0x3E939F, size: 0x8, addend: 0x0, symName: __ZThn40_N5boost16exception_detail10bad_alloc_D1Ev, symObjAddr: 0x5F18, symBinAddr: 0x41723C, symSize: 0x50 }
  - { offset: 0x3E93A7, size: 0x8, addend: 0x0, symName: __ZThn40_N5boost16exception_detail10bad_alloc_D0Ev, symObjAddr: 0x5F68, symBinAddr: 0x41728C, symSize: 0x4C }
  - { offset: 0x3E9494, size: 0x8, addend: 0x0, symName: __ZThn40_N5boost16exception_detail10bad_alloc_D0Ev, symObjAddr: 0x5F68, symBinAddr: 0x41728C, symSize: 0x4C }
  - { offset: 0x3E949C, size: 0x8, addend: 0x0, symName: __ZN5boost16exception_detail10bad_alloc_D2Ev, symObjAddr: 0x5FB4, symBinAddr: 0x4172D8, symSize: 0x58 }
  - { offset: 0x3E94C1, size: 0x8, addend: 0x0, symName: __ZN5boost16exception_detail10bad_alloc_D2Ev, symObjAddr: 0x5FB4, symBinAddr: 0x4172D8, symSize: 0x58 }
  - { offset: 0x3E959E, size: 0x8, addend: 0x0, symName: __ZN5boost16exception_detail10bad_alloc_D2Ev, symObjAddr: 0x5FB4, symBinAddr: 0x4172D8, symSize: 0x58 }
  - { offset: 0x3E95A6, size: 0x8, addend: 0x0, symName: __ZN5boost16exception_detail10clone_implINS0_10bad_alloc_EED0Ev, symObjAddr: 0x600C, symBinAddr: 0x417330, symSize: 0x50 }
  - { offset: 0x3E964E, size: 0x8, addend: 0x0, symName: __ZN5boost16exception_detail10clone_implINS0_10bad_alloc_EED0Ev, symObjAddr: 0x600C, symBinAddr: 0x417330, symSize: 0x50 }
  - { offset: 0x3E9656, size: 0x8, addend: 0x0, symName: __ZNK5boost16exception_detail10clone_implINS0_10bad_alloc_EE5cloneEv, symObjAddr: 0x605C, symBinAddr: 0x417380, symSize: 0xC8 }
  - { offset: 0x3E97A1, size: 0x8, addend: 0x0, symName: __ZNK5boost16exception_detail10clone_implINS0_10bad_alloc_EE5cloneEv, symObjAddr: 0x605C, symBinAddr: 0x417380, symSize: 0xC8 }
  - { offset: 0x3E97A9, size: 0x8, addend: 0x0, symName: __ZNK5boost16exception_detail10clone_implINS0_10bad_alloc_EE7rethrowEv, symObjAddr: 0x6124, symBinAddr: 0x417448, symSize: 0x50 }
  - { offset: 0x3E98F1, size: 0x8, addend: 0x0, symName: __ZNK5boost16exception_detail10clone_implINS0_10bad_alloc_EE7rethrowEv, symObjAddr: 0x6124, symBinAddr: 0x417448, symSize: 0x50 }
  - { offset: 0x3E98F9, size: 0x8, addend: 0x0, symName: __ZThn40_N5boost16exception_detail10clone_implINS0_10bad_alloc_EED1Ev, symObjAddr: 0x6174, symBinAddr: 0x417498, symSize: 0x50 }
  - { offset: 0x3E9920, size: 0x8, addend: 0x0, symName: __ZThn40_N5boost16exception_detail10clone_implINS0_10bad_alloc_EED1Ev, symObjAddr: 0x6174, symBinAddr: 0x417498, symSize: 0x50 }
  - { offset: 0x3E9928, size: 0x8, addend: 0x0, symName: __ZThn40_N5boost16exception_detail10clone_implINS0_10bad_alloc_EED0Ev, symObjAddr: 0x61C4, symBinAddr: 0x4174E8, symSize: 0x4C }
  - { offset: 0x3E9A34, size: 0x8, addend: 0x0, symName: __ZThn40_N5boost16exception_detail10clone_implINS0_10bad_alloc_EED0Ev, symObjAddr: 0x61C4, symBinAddr: 0x4174E8, symSize: 0x4C }
  - { offset: 0x3E9A3C, size: 0x8, addend: 0x0, symName: __ZTv0_n24_NK5boost16exception_detail10clone_implINS0_10bad_alloc_EE5cloneEv, symObjAddr: 0x6210, symBinAddr: 0x417534, symSize: 0x10C }
  - { offset: 0x3E9A62, size: 0x8, addend: 0x0, symName: __ZTv0_n24_NK5boost16exception_detail10clone_implINS0_10bad_alloc_EE5cloneEv, symObjAddr: 0x6210, symBinAddr: 0x417534, symSize: 0x10C }
  - { offset: 0x3E9B8A, size: 0x8, addend: 0x0, symName: __ZTv0_n24_NK5boost16exception_detail10clone_implINS0_10bad_alloc_EE5cloneEv, symObjAddr: 0x6210, symBinAddr: 0x417534, symSize: 0x10C }
  - { offset: 0x3E9B92, size: 0x8, addend: 0x0, symName: __ZTv0_n32_NK5boost16exception_detail10clone_implINS0_10bad_alloc_EE7rethrowEv, symObjAddr: 0x631C, symBinAddr: 0x417640, symSize: 0x58 }
  - { offset: 0x3E9DC2, size: 0x8, addend: 0x0, symName: __ZTv0_n32_NK5boost16exception_detail10clone_implINS0_10bad_alloc_EE7rethrowEv, symObjAddr: 0x631C, symBinAddr: 0x417640, symSize: 0x58 }
  - { offset: 0x3E9DCA, size: 0x8, addend: 0x0, symName: __ZTv0_n40_N5boost16exception_detail10clone_implINS0_10bad_alloc_EED1Ev, symObjAddr: 0x6374, symBinAddr: 0x417698, symSize: 0x5C }
  - { offset: 0x3E9DF0, size: 0x8, addend: 0x0, symName: __ZTv0_n40_N5boost16exception_detail10clone_implINS0_10bad_alloc_EED1Ev, symObjAddr: 0x6374, symBinAddr: 0x417698, symSize: 0x5C }
  - { offset: 0x3E9E0C, size: 0x8, addend: 0x0, symName: __ZTv0_n40_N5boost16exception_detail10clone_implINS0_10bad_alloc_EED1Ev, symObjAddr: 0x6374, symBinAddr: 0x417698, symSize: 0x5C }
  - { offset: 0x3E9E14, size: 0x8, addend: 0x0, symName: __ZTv0_n40_N5boost16exception_detail10clone_implINS0_10bad_alloc_EED0Ev, symObjAddr: 0x63D0, symBinAddr: 0x4176F4, symSize: 0x58 }
  - { offset: 0x3E9F0D, size: 0x8, addend: 0x0, symName: __ZTv0_n40_N5boost16exception_detail10clone_implINS0_10bad_alloc_EED0Ev, symObjAddr: 0x63D0, symBinAddr: 0x4176F4, symSize: 0x58 }
  - { offset: 0x3E9F15, size: 0x8, addend: 0x0, symName: __ZN5boost10shared_ptrIKNS_16exception_detail10clone_baseEEC2INS1_10clone_implINS1_10bad_alloc_EEEEEPT_, symObjAddr: 0x6428, symBinAddr: 0x41774C, symSize: 0xB0 }
  - { offset: 0x3E9F3B, size: 0x8, addend: 0x0, symName: __ZN5boost10shared_ptrIKNS_16exception_detail10clone_baseEEC2INS1_10clone_implINS1_10bad_alloc_EEEEEPT_, symObjAddr: 0x6428, symBinAddr: 0x41774C, symSize: 0xB0 }
  - { offset: 0x3EA16F, size: 0x8, addend: 0x0, symName: __ZN5boost10shared_ptrIKNS_16exception_detail10clone_baseEEC2INS1_10clone_implINS1_10bad_alloc_EEEEEPT_, symObjAddr: 0x6428, symBinAddr: 0x41774C, symSize: 0xB0 }
  - { offset: 0x3EA177, size: 0x8, addend: 0x0, symName: __ZN5boost6detail17sp_counted_impl_pINS_16exception_detail10clone_implINS2_10bad_alloc_EEEED1Ev, symObjAddr: 0x64D8, symBinAddr: 0x4177FC, symSize: 0x4 }
  - { offset: 0x3EA36D, size: 0x8, addend: 0x0, symName: __ZN5boost6detail17sp_counted_impl_pINS_16exception_detail10clone_implINS2_10bad_alloc_EEEED1Ev, symObjAddr: 0x64D8, symBinAddr: 0x4177FC, symSize: 0x4 }
  - { offset: 0x3EA375, size: 0x8, addend: 0x0, symName: __ZN5boost6detail17sp_counted_impl_pINS_16exception_detail10clone_implINS2_10bad_alloc_EEEED0Ev, symObjAddr: 0x64DC, symBinAddr: 0x417800, symSize: 0x4 }
  - { offset: 0x3EA3A6, size: 0x8, addend: 0x0, symName: __ZN5boost6detail17sp_counted_impl_pINS_16exception_detail10clone_implINS2_10bad_alloc_EEEED0Ev, symObjAddr: 0x64DC, symBinAddr: 0x417800, symSize: 0x4 }
  - { offset: 0x3EA3AE, size: 0x8, addend: 0x0, symName: __ZN5boost6detail17sp_counted_impl_pINS_16exception_detail10clone_implINS2_10bad_alloc_EEEE7disposeEv, symObjAddr: 0x64E0, symBinAddr: 0x417804, symSize: 0x18 }
  - { offset: 0x3EA3DF, size: 0x8, addend: 0x0, symName: __ZN5boost6detail17sp_counted_impl_pINS_16exception_detail10clone_implINS2_10bad_alloc_EEEE7disposeEv, symObjAddr: 0x64E0, symBinAddr: 0x417804, symSize: 0x18 }
  - { offset: 0x3EA43E, size: 0x8, addend: 0x0, symName: __ZN5boost6detail17sp_counted_impl_pINS_16exception_detail10clone_implINS2_10bad_alloc_EEEE11get_deleterERKSt9type_info, symObjAddr: 0x650C, symBinAddr: 0x41781C, symSize: 0x8 }
  - { offset: 0x3EA446, size: 0x8, addend: 0x0, symName: __ZN5boost6detail17sp_counted_impl_pINS_16exception_detail10clone_implINS2_10bad_alloc_EEEE17get_local_deleterERKSt9type_info, symObjAddr: 0x6514, symBinAddr: 0x417824, symSize: 0x8 }
  - { offset: 0x3EA481, size: 0x8, addend: 0x0, symName: __ZN5boost6detail17sp_counted_impl_pINS_16exception_detail10clone_implINS2_10bad_alloc_EEEE17get_local_deleterERKSt9type_info, symObjAddr: 0x6514, symBinAddr: 0x417824, symSize: 0x8 }
  - { offset: 0x3EA489, size: 0x8, addend: 0x0, symName: __ZN5boost6detail17sp_counted_impl_pINS_16exception_detail10clone_implINS2_10bad_alloc_EEEE19get_untyped_deleterEv, symObjAddr: 0x651C, symBinAddr: 0x41782C, symSize: 0x8 }
  - { offset: 0x3EA4C4, size: 0x8, addend: 0x0, symName: __ZN5boost6detail17sp_counted_impl_pINS_16exception_detail10clone_implINS2_10bad_alloc_EEEE19get_untyped_deleterEv, symObjAddr: 0x651C, symBinAddr: 0x41782C, symSize: 0x8 }
  - { offset: 0x3EA4CC, size: 0x8, addend: 0x0, symName: __ZN5boost16exception_detail10clone_implINS0_14bad_exception_EEC1ERKS3_, symObjAddr: 0x6524, symBinAddr: 0x417834, symSize: 0x80 }
  - { offset: 0x3EA4F9, size: 0x8, addend: 0x0, symName: __ZN5boost16exception_detail10clone_implINS0_14bad_exception_EEC1ERKS3_, symObjAddr: 0x6524, symBinAddr: 0x417834, symSize: 0x80 }
  - { offset: 0x3EA501, size: 0x8, addend: 0x0, symName: __ZN5boost16exception_detail10clone_implINS0_14bad_exception_EED1Ev, symObjAddr: 0x65A4, symBinAddr: 0x4178B4, symSize: 0x58 }
  - { offset: 0x3EA628, size: 0x8, addend: 0x0, symName: __ZN5boost16exception_detail10clone_implINS0_14bad_exception_EED1Ev, symObjAddr: 0x65A4, symBinAddr: 0x4178B4, symSize: 0x58 }
  - { offset: 0x3EA630, size: 0x8, addend: 0x0, symName: __ZN5boost16exception_detail14bad_exception_D1Ev, symObjAddr: 0x65FC, symBinAddr: 0x41790C, symSize: 0x58 }
  - { offset: 0x3EA71A, size: 0x8, addend: 0x0, symName: __ZN5boost16exception_detail14bad_exception_D1Ev, symObjAddr: 0x65FC, symBinAddr: 0x41790C, symSize: 0x58 }
  - { offset: 0x3EA722, size: 0x8, addend: 0x0, symName: __ZN5boost16exception_detail14bad_exception_D0Ev, symObjAddr: 0x6654, symBinAddr: 0x417964, symSize: 0x50 }
  - { offset: 0x3EA7EA, size: 0x8, addend: 0x0, symName: __ZN5boost16exception_detail14bad_exception_D0Ev, symObjAddr: 0x6654, symBinAddr: 0x417964, symSize: 0x50 }
  - { offset: 0x3EA7F2, size: 0x8, addend: 0x0, symName: __ZThn40_N5boost16exception_detail14bad_exception_D1Ev, symObjAddr: 0x66A4, symBinAddr: 0x4179B4, symSize: 0x50 }
  - { offset: 0x3EA8DA, size: 0x8, addend: 0x0, symName: __ZThn40_N5boost16exception_detail14bad_exception_D1Ev, symObjAddr: 0x66A4, symBinAddr: 0x4179B4, symSize: 0x50 }
  - { offset: 0x3EA8E2, size: 0x8, addend: 0x0, symName: __ZThn40_N5boost16exception_detail14bad_exception_D0Ev, symObjAddr: 0x66F4, symBinAddr: 0x417A04, symSize: 0x4C }
  - { offset: 0x3EA9CF, size: 0x8, addend: 0x0, symName: __ZThn40_N5boost16exception_detail14bad_exception_D0Ev, symObjAddr: 0x66F4, symBinAddr: 0x417A04, symSize: 0x4C }
  - { offset: 0x3EA9D7, size: 0x8, addend: 0x0, symName: __ZN5boost16exception_detail14bad_exception_D2Ev, symObjAddr: 0x6740, symBinAddr: 0x417A50, symSize: 0x58 }
  - { offset: 0x3EA9FC, size: 0x8, addend: 0x0, symName: __ZN5boost16exception_detail14bad_exception_D2Ev, symObjAddr: 0x6740, symBinAddr: 0x417A50, symSize: 0x58 }
  - { offset: 0x3EAAD9, size: 0x8, addend: 0x0, symName: __ZN5boost16exception_detail14bad_exception_D2Ev, symObjAddr: 0x6740, symBinAddr: 0x417A50, symSize: 0x58 }
  - { offset: 0x3EAAE1, size: 0x8, addend: 0x0, symName: __ZN5boost16exception_detail10clone_implINS0_14bad_exception_EED0Ev, symObjAddr: 0x6798, symBinAddr: 0x417AA8, symSize: 0x50 }
  - { offset: 0x3EAB89, size: 0x8, addend: 0x0, symName: __ZN5boost16exception_detail10clone_implINS0_14bad_exception_EED0Ev, symObjAddr: 0x6798, symBinAddr: 0x417AA8, symSize: 0x50 }
  - { offset: 0x3EAB91, size: 0x8, addend: 0x0, symName: __ZNK5boost16exception_detail10clone_implINS0_14bad_exception_EE5cloneEv, symObjAddr: 0x67E8, symBinAddr: 0x417AF8, symSize: 0xC8 }
  - { offset: 0x3EACDC, size: 0x8, addend: 0x0, symName: __ZNK5boost16exception_detail10clone_implINS0_14bad_exception_EE5cloneEv, symObjAddr: 0x67E8, symBinAddr: 0x417AF8, symSize: 0xC8 }
  - { offset: 0x3EACE4, size: 0x8, addend: 0x0, symName: __ZNK5boost16exception_detail10clone_implINS0_14bad_exception_EE7rethrowEv, symObjAddr: 0x68B0, symBinAddr: 0x417BC0, symSize: 0x50 }
  - { offset: 0x3EAE2C, size: 0x8, addend: 0x0, symName: __ZNK5boost16exception_detail10clone_implINS0_14bad_exception_EE7rethrowEv, symObjAddr: 0x68B0, symBinAddr: 0x417BC0, symSize: 0x50 }
  - { offset: 0x3EAE34, size: 0x8, addend: 0x0, symName: __ZThn40_N5boost16exception_detail10clone_implINS0_14bad_exception_EED1Ev, symObjAddr: 0x6900, symBinAddr: 0x417C10, symSize: 0x50 }
  - { offset: 0x3EAE5B, size: 0x8, addend: 0x0, symName: __ZThn40_N5boost16exception_detail10clone_implINS0_14bad_exception_EED1Ev, symObjAddr: 0x6900, symBinAddr: 0x417C10, symSize: 0x50 }
  - { offset: 0x3EAE63, size: 0x8, addend: 0x0, symName: __ZThn40_N5boost16exception_detail10clone_implINS0_14bad_exception_EED0Ev, symObjAddr: 0x6950, symBinAddr: 0x417C60, symSize: 0x4C }
  - { offset: 0x3EAF6F, size: 0x8, addend: 0x0, symName: __ZThn40_N5boost16exception_detail10clone_implINS0_14bad_exception_EED0Ev, symObjAddr: 0x6950, symBinAddr: 0x417C60, symSize: 0x4C }
  - { offset: 0x3EAF77, size: 0x8, addend: 0x0, symName: __ZTv0_n24_NK5boost16exception_detail10clone_implINS0_14bad_exception_EE5cloneEv, symObjAddr: 0x699C, symBinAddr: 0x417CAC, symSize: 0x10C }
  - { offset: 0x3EAF9D, size: 0x8, addend: 0x0, symName: __ZTv0_n24_NK5boost16exception_detail10clone_implINS0_14bad_exception_EE5cloneEv, symObjAddr: 0x699C, symBinAddr: 0x417CAC, symSize: 0x10C }
  - { offset: 0x3EB0C5, size: 0x8, addend: 0x0, symName: __ZTv0_n24_NK5boost16exception_detail10clone_implINS0_14bad_exception_EE5cloneEv, symObjAddr: 0x699C, symBinAddr: 0x417CAC, symSize: 0x10C }
  - { offset: 0x3EB0CD, size: 0x8, addend: 0x0, symName: __ZTv0_n32_NK5boost16exception_detail10clone_implINS0_14bad_exception_EE7rethrowEv, symObjAddr: 0x6AA8, symBinAddr: 0x417DB8, symSize: 0x58 }
  - { offset: 0x3EB2FD, size: 0x8, addend: 0x0, symName: __ZTv0_n32_NK5boost16exception_detail10clone_implINS0_14bad_exception_EE7rethrowEv, symObjAddr: 0x6AA8, symBinAddr: 0x417DB8, symSize: 0x58 }
  - { offset: 0x3EB305, size: 0x8, addend: 0x0, symName: __ZTv0_n40_N5boost16exception_detail10clone_implINS0_14bad_exception_EED1Ev, symObjAddr: 0x6B00, symBinAddr: 0x417E10, symSize: 0x5C }
  - { offset: 0x3EB32B, size: 0x8, addend: 0x0, symName: __ZTv0_n40_N5boost16exception_detail10clone_implINS0_14bad_exception_EED1Ev, symObjAddr: 0x6B00, symBinAddr: 0x417E10, symSize: 0x5C }
  - { offset: 0x3EB347, size: 0x8, addend: 0x0, symName: __ZTv0_n40_N5boost16exception_detail10clone_implINS0_14bad_exception_EED1Ev, symObjAddr: 0x6B00, symBinAddr: 0x417E10, symSize: 0x5C }
  - { offset: 0x3EB34F, size: 0x8, addend: 0x0, symName: __ZTv0_n40_N5boost16exception_detail10clone_implINS0_14bad_exception_EED0Ev, symObjAddr: 0x6B5C, symBinAddr: 0x417E6C, symSize: 0x58 }
  - { offset: 0x3EB448, size: 0x8, addend: 0x0, symName: __ZTv0_n40_N5boost16exception_detail10clone_implINS0_14bad_exception_EED0Ev, symObjAddr: 0x6B5C, symBinAddr: 0x417E6C, symSize: 0x58 }
  - { offset: 0x3EB450, size: 0x8, addend: 0x0, symName: __ZN5boost10shared_ptrIKNS_16exception_detail10clone_baseEEC2INS1_10clone_implINS1_14bad_exception_EEEEEPT_, symObjAddr: 0x6BB4, symBinAddr: 0x417EC4, symSize: 0xB0 }
  - { offset: 0x3EB476, size: 0x8, addend: 0x0, symName: __ZN5boost10shared_ptrIKNS_16exception_detail10clone_baseEEC2INS1_10clone_implINS1_14bad_exception_EEEEEPT_, symObjAddr: 0x6BB4, symBinAddr: 0x417EC4, symSize: 0xB0 }
  - { offset: 0x3EB687, size: 0x8, addend: 0x0, symName: __ZN5boost10shared_ptrIKNS_16exception_detail10clone_baseEEC2INS1_10clone_implINS1_14bad_exception_EEEEEPT_, symObjAddr: 0x6BB4, symBinAddr: 0x417EC4, symSize: 0xB0 }
  - { offset: 0x3EB68F, size: 0x8, addend: 0x0, symName: __ZN5boost6detail17sp_counted_impl_pINS_16exception_detail10clone_implINS2_14bad_exception_EEEED1Ev, symObjAddr: 0x6C64, symBinAddr: 0x417F74, symSize: 0x4 }
  - { offset: 0x3EB885, size: 0x8, addend: 0x0, symName: __ZN5boost6detail17sp_counted_impl_pINS_16exception_detail10clone_implINS2_14bad_exception_EEEED1Ev, symObjAddr: 0x6C64, symBinAddr: 0x417F74, symSize: 0x4 }
  - { offset: 0x3EB88D, size: 0x8, addend: 0x0, symName: __ZN5boost6detail17sp_counted_impl_pINS_16exception_detail10clone_implINS2_14bad_exception_EEEED0Ev, symObjAddr: 0x6C68, symBinAddr: 0x417F78, symSize: 0x4 }
  - { offset: 0x3EB8BE, size: 0x8, addend: 0x0, symName: __ZN5boost6detail17sp_counted_impl_pINS_16exception_detail10clone_implINS2_14bad_exception_EEEED0Ev, symObjAddr: 0x6C68, symBinAddr: 0x417F78, symSize: 0x4 }
  - { offset: 0x3EB8C6, size: 0x8, addend: 0x0, symName: __ZN5boost6detail17sp_counted_impl_pINS_16exception_detail10clone_implINS2_14bad_exception_EEEE7disposeEv, symObjAddr: 0x6C6C, symBinAddr: 0x417F7C, symSize: 0x18 }
  - { offset: 0x3EB8F7, size: 0x8, addend: 0x0, symName: __ZN5boost6detail17sp_counted_impl_pINS_16exception_detail10clone_implINS2_14bad_exception_EEEE7disposeEv, symObjAddr: 0x6C6C, symBinAddr: 0x417F7C, symSize: 0x18 }
  - { offset: 0x3EB8FF, size: 0x8, addend: 0x0, symName: __ZN5boost6detail17sp_counted_impl_pINS_16exception_detail10clone_implINS2_14bad_exception_EEEE11get_deleterERKSt9type_info, symObjAddr: 0x6C84, symBinAddr: 0x417F94, symSize: 0x8 }
  - { offset: 0x3EB956, size: 0x8, addend: 0x0, symName: __ZN5boost6detail17sp_counted_impl_pINS_16exception_detail10clone_implINS2_14bad_exception_EEEE11get_deleterERKSt9type_info, symObjAddr: 0x6C84, symBinAddr: 0x417F94, symSize: 0x8 }
  - { offset: 0x3EB95E, size: 0x8, addend: 0x0, symName: __ZN5boost6detail17sp_counted_impl_pINS_16exception_detail10clone_implINS2_14bad_exception_EEEE17get_local_deleterERKSt9type_info, symObjAddr: 0x6C8C, symBinAddr: 0x417F9C, symSize: 0x8 }
  - { offset: 0x3EB999, size: 0x8, addend: 0x0, symName: __ZN5boost6detail17sp_counted_impl_pINS_16exception_detail10clone_implINS2_14bad_exception_EEEE17get_local_deleterERKSt9type_info, symObjAddr: 0x6C8C, symBinAddr: 0x417F9C, symSize: 0x8 }
  - { offset: 0x3EB9A1, size: 0x8, addend: 0x0, symName: __ZN5boost6detail17sp_counted_impl_pINS_16exception_detail10clone_implINS2_14bad_exception_EEEE19get_untyped_deleterEv, symObjAddr: 0x6C94, symBinAddr: 0x417FA4, symSize: 0x8 }
  - { offset: 0x3EB9DC, size: 0x8, addend: 0x0, symName: __ZN5boost6detail17sp_counted_impl_pINS_16exception_detail10clone_implINS2_14bad_exception_EEEE19get_untyped_deleterEv, symObjAddr: 0x6C94, symBinAddr: 0x417FA4, symSize: 0x8 }
  - { offset: 0x3EB9E4, size: 0x8, addend: 0x0, symName: __ZN5boost6detail16thread_data_baseC2Ev, symObjAddr: 0x6C9C, symBinAddr: 0x417FAC, symSize: 0x18C }
  - { offset: 0x3EBE32, size: 0x8, addend: 0x0, symName: __ZN5boost6detail16thread_data_baseC2Ev, symObjAddr: 0x6C9C, symBinAddr: 0x417FAC, symSize: 0x18C }
  - { offset: 0x3EBE3A, size: 0x8, addend: 0x0, symName: __ZN5boost6detail26externally_launched_threadD1Ev, symObjAddr: 0x6E28, symBinAddr: 0x418138, symSize: 0xB4 }
  - { offset: 0x3EC395, size: 0x8, addend: 0x0, symName: __ZN5boost6detail26externally_launched_threadD1Ev, symObjAddr: 0x6E28, symBinAddr: 0x418138, symSize: 0xB4 }
  - { offset: 0x3EC39D, size: 0x8, addend: 0x0, symName: __ZN5boost6detail26externally_launched_threadD0Ev, symObjAddr: 0x6EDC, symBinAddr: 0x4181EC, symSize: 0xB8 }
  - { offset: 0x3EC3D3, size: 0x8, addend: 0x0, symName: __ZN5boost6detail26externally_launched_threadD0Ev, symObjAddr: 0x6EDC, symBinAddr: 0x4181EC, symSize: 0xB8 }
  - { offset: 0x3EC6A9, size: 0x8, addend: 0x0, symName: __ZN5boost6detail26externally_launched_threadD0Ev, symObjAddr: 0x6EDC, symBinAddr: 0x4181EC, symSize: 0xB8 }
  - { offset: 0x3EC6B1, size: 0x8, addend: 0x0, symName: __ZN5boost6detail26externally_launched_thread3runEv, symObjAddr: 0x6F94, symBinAddr: 0x4182A4, symSize: 0x4 }
  - { offset: 0x3EC9B7, size: 0x8, addend: 0x0, symName: __ZN5boost6detail26externally_launched_thread3runEv, symObjAddr: 0x6F94, symBinAddr: 0x4182A4, symSize: 0x4 }
  - { offset: 0x3EC9BF, size: 0x8, addend: 0x0, symName: __ZN5boost6detail26externally_launched_thread25notify_all_at_thread_exitEPNS_18condition_variableEPNS_5mutexE, symObjAddr: 0x6F98, symBinAddr: 0x4182A8, symSize: 0x4 }
  - { offset: 0x3EC9EA, size: 0x8, addend: 0x0, symName: __ZN5boost6detail26externally_launched_thread25notify_all_at_thread_exitEPNS_18condition_variableEPNS_5mutexE, symObjAddr: 0x6F98, symBinAddr: 0x4182A8, symSize: 0x4 }
  - { offset: 0x3EC9F2, size: 0x8, addend: 0x0, symName: __ZN5boost15throw_exceptionINS_21thread_resource_errorEEEvRKT_, symObjAddr: 0x6F9C, symBinAddr: 0x4182AC, symSize: 0x50 }
  - { offset: 0x3ECA39, size: 0x8, addend: 0x0, symName: __ZN5boost21thread_resource_errorC1EiPKc, symObjAddr: 0x6FEC, symBinAddr: 0x4182FC, symSize: 0xB0 }
  - { offset: 0x3ECA41, size: 0x8, addend: 0x0, symName: __ZN5boost21thread_resource_errorD1Ev, symObjAddr: 0x709C, symBinAddr: 0x4183AC, symSize: 0x4 }
  - { offset: 0x3ECB58, size: 0x8, addend: 0x0, symName: __ZN5boost21thread_resource_errorD1Ev, symObjAddr: 0x709C, symBinAddr: 0x4183AC, symSize: 0x4 }
  - { offset: 0x3ECB60, size: 0x8, addend: 0x0, symName: __ZN5boost10wrapexceptINS_21thread_resource_errorEEC1ERKS1_, symObjAddr: 0x70A0, symBinAddr: 0x4183B0, symSize: 0x80 }
  - { offset: 0x3ECB8D, size: 0x8, addend: 0x0, symName: __ZN5boost21thread_resource_errorD1Ev, symObjAddr: 0x709C, symBinAddr: 0x4183AC, symSize: 0x4 }
  - { offset: 0x3ECB95, size: 0x8, addend: 0x0, symName: __ZN5boost10wrapexceptINS_21thread_resource_errorEEC1ERKS1_, symObjAddr: 0x70A0, symBinAddr: 0x4183B0, symSize: 0x80 }
  - { offset: 0x3ECBB6, size: 0x8, addend: 0x0, symName: __ZN5boost21thread_resource_errorD1Ev, symObjAddr: 0x709C, symBinAddr: 0x4183AC, symSize: 0x4 }
  - { offset: 0x3ECBBE, size: 0x8, addend: 0x0, symName: __ZN5boost10wrapexceptINS_21thread_resource_errorEEC1ERKS1_, symObjAddr: 0x70A0, symBinAddr: 0x4183B0, symSize: 0x80 }
  - { offset: 0x3ECBDF, size: 0x8, addend: 0x0, symName: __ZN5boost21thread_resource_errorD1Ev, symObjAddr: 0x709C, symBinAddr: 0x4183AC, symSize: 0x4 }
  - { offset: 0x3ECBE7, size: 0x8, addend: 0x0, symName: __ZN5boost10wrapexceptINS_21thread_resource_errorEEC1ERKS1_, symObjAddr: 0x70A0, symBinAddr: 0x4183B0, symSize: 0x80 }
  - { offset: 0x3ECC6D, size: 0x8, addend: 0x0, symName: __ZN5boost10wrapexceptINS_21thread_resource_errorEEC1ERKS1_, symObjAddr: 0x70A0, symBinAddr: 0x4183B0, symSize: 0x80 }
  - { offset: 0x3ECC75, size: 0x8, addend: 0x0, symName: __ZN5boost10wrapexceptINS_21thread_resource_errorEED1Ev, symObjAddr: 0x7120, symBinAddr: 0x418430, symSize: 0x58 }
  - { offset: 0x3ECDD8, size: 0x8, addend: 0x0, symName: __ZN5boost10wrapexceptINS_21thread_resource_errorEED1Ev, symObjAddr: 0x7120, symBinAddr: 0x418430, symSize: 0x58 }
  - { offset: 0x3ECDE0, size: 0x8, addend: 0x0, symName: __ZNK5boost10wrapexceptINS_21thread_resource_errorEE5cloneEv, symObjAddr: 0x7178, symBinAddr: 0x418488, symSize: 0x110 }
  - { offset: 0x3ECFE0, size: 0x8, addend: 0x0, symName: __ZNK5boost10wrapexceptINS_21thread_resource_errorEE5cloneEv, symObjAddr: 0x7178, symBinAddr: 0x418488, symSize: 0x110 }
  - { offset: 0x3ECFE8, size: 0x8, addend: 0x0, symName: __ZNK5boost10wrapexceptINS_21thread_resource_errorEE7rethrowEv, symObjAddr: 0x7288, symBinAddr: 0x418598, symSize: 0x50 }
  - { offset: 0x3ED2C5, size: 0x8, addend: 0x0, symName: __ZNK5boost10wrapexceptINS_21thread_resource_errorEE7rethrowEv, symObjAddr: 0x7288, symBinAddr: 0x418598, symSize: 0x50 }
  - { offset: 0x3ED2E2, size: 0x8, addend: 0x0, symName: __ZNK5boost10wrapexceptINS_21thread_resource_errorEE7rethrowEv, symObjAddr: 0x7288, symBinAddr: 0x418598, symSize: 0x50 }
  - { offset: 0x3ED2F1, size: 0x8, addend: 0x0, symName: __ZNK5boost10wrapexceptINS_21thread_resource_errorEE7rethrowEv, symObjAddr: 0x7288, symBinAddr: 0x418598, symSize: 0x50 }
  - { offset: 0x3ED2F9, size: 0x8, addend: 0x0, symName: __ZN5boost10wrapexceptINS_21thread_resource_errorEED0Ev, symObjAddr: 0x72D8, symBinAddr: 0x4185E8, symSize: 0x58 }
  - { offset: 0x3ED34A, size: 0x8, addend: 0x0, symName: __ZN5boost10wrapexceptINS_21thread_resource_errorEED0Ev, symObjAddr: 0x72D8, symBinAddr: 0x4185E8, symSize: 0x58 }
  - { offset: 0x3ED352, size: 0x8, addend: 0x0, symName: __ZThn8_N5boost10wrapexceptINS_21thread_resource_errorEED1Ev, symObjAddr: 0x7330, symBinAddr: 0x418640, symSize: 0x50 }
  - { offset: 0x3ED4B4, size: 0x8, addend: 0x0, symName: __ZThn8_N5boost10wrapexceptINS_21thread_resource_errorEED1Ev, symObjAddr: 0x7330, symBinAddr: 0x418640, symSize: 0x50 }
  - { offset: 0x3ED4BC, size: 0x8, addend: 0x0, symName: __ZThn8_N5boost10wrapexceptINS_21thread_resource_errorEED0Ev, symObjAddr: 0x7380, symBinAddr: 0x418690, symSize: 0x5C }
  - { offset: 0x3ED4E1, size: 0x8, addend: 0x0, symName: __ZThn8_N5boost10wrapexceptINS_21thread_resource_errorEED0Ev, symObjAddr: 0x7380, symBinAddr: 0x418690, symSize: 0x5C }
  - { offset: 0x3ED507, size: 0x8, addend: 0x0, symName: __ZThn8_N5boost10wrapexceptINS_21thread_resource_errorEED0Ev, symObjAddr: 0x7380, symBinAddr: 0x418690, symSize: 0x5C }
  - { offset: 0x3ED647, size: 0x8, addend: 0x0, symName: __ZThn8_N5boost10wrapexceptINS_21thread_resource_errorEED0Ev, symObjAddr: 0x7380, symBinAddr: 0x418690, symSize: 0x5C }
  - { offset: 0x3ED64F, size: 0x8, addend: 0x0, symName: __ZThn48_N5boost10wrapexceptINS_21thread_resource_errorEED1Ev, symObjAddr: 0x73DC, symBinAddr: 0x4186EC, symSize: 0x50 }
  - { offset: 0x3ED7BF, size: 0x8, addend: 0x0, symName: __ZThn48_N5boost10wrapexceptINS_21thread_resource_errorEED1Ev, symObjAddr: 0x73DC, symBinAddr: 0x4186EC, symSize: 0x50 }
  - { offset: 0x3ED7C7, size: 0x8, addend: 0x0, symName: __ZThn48_N5boost10wrapexceptINS_21thread_resource_errorEED0Ev, symObjAddr: 0x742C, symBinAddr: 0x41873C, symSize: 0x5C }
  - { offset: 0x3ED7EC, size: 0x8, addend: 0x0, symName: __ZThn48_N5boost10wrapexceptINS_21thread_resource_errorEED0Ev, symObjAddr: 0x742C, symBinAddr: 0x41873C, symSize: 0x5C }
  - { offset: 0x3ED812, size: 0x8, addend: 0x0, symName: __ZThn48_N5boost10wrapexceptINS_21thread_resource_errorEED0Ev, symObjAddr: 0x742C, symBinAddr: 0x41873C, symSize: 0x5C }
  - { offset: 0x3ED92B, size: 0x8, addend: 0x0, symName: __ZThn48_N5boost10wrapexceptINS_21thread_resource_errorEED0Ev, symObjAddr: 0x742C, symBinAddr: 0x41873C, symSize: 0x5C }
  - { offset: 0x3ED933, size: 0x8, addend: 0x0, symName: __ZN5boost21thread_resource_errorD0Ev, symObjAddr: 0x7488, symBinAddr: 0x418798, symSize: 0x14 }
  - { offset: 0x3EDAA7, size: 0x8, addend: 0x0, symName: __ZN5boost21thread_resource_errorD0Ev, symObjAddr: 0x7488, symBinAddr: 0x418798, symSize: 0x14 }
  - { offset: 0x3EDAAF, size: 0x8, addend: 0x0, symName: __ZN5boost10wrapexceptINS_21thread_resource_errorEEC1ERKS2_, symObjAddr: 0x749C, symBinAddr: 0x4187AC, symSize: 0xE0 }
  - { offset: 0x3EDB85, size: 0x8, addend: 0x0, symName: __ZN5boost10wrapexceptINS_21thread_resource_errorEEC1ERKS2_, symObjAddr: 0x749C, symBinAddr: 0x4187AC, symSize: 0xE0 }
  - { offset: 0x3EDB8D, size: 0x8, addend: 0x0, symName: __ZN5boost18condition_variableC2Ev, symObjAddr: 0x757C, symBinAddr: 0x41888C, symSize: 0xC0 }
  - { offset: 0x3EDD6A, size: 0x8, addend: 0x0, symName: __ZN5boost18condition_variableC2Ev, symObjAddr: 0x757C, symBinAddr: 0x41888C, symSize: 0xC0 }
  - { offset: 0x3EDD93, size: 0x8, addend: 0x0, symName: __ZN5boost18condition_variableC2Ev, symObjAddr: 0x757C, symBinAddr: 0x41888C, symSize: 0xC0 }
  - { offset: 0x3EDDBC, size: 0x8, addend: 0x0, symName: __ZN5boost18condition_variableC2Ev, symObjAddr: 0x757C, symBinAddr: 0x41888C, symSize: 0xC0 }
  - { offset: 0x3EDDDA, size: 0x8, addend: 0x0, symName: __ZN5boost18condition_variableC2Ev, symObjAddr: 0x757C, symBinAddr: 0x41888C, symSize: 0xC0 }
  - { offset: 0x3EDDE2, size: 0x8, addend: 0x0, symName: __ZN5boost6detail20sp_pointer_constructINS0_16thread_data_baseES2_EEvPNS_10shared_ptrIT_EEPT0_RNS0_12shared_countE, symObjAddr: 0x763C, symBinAddr: 0x41894C, symSize: 0x104 }
  - { offset: 0x3EDEC5, size: 0x8, addend: 0x0, symName: __ZN5boost6detail20sp_pointer_constructINS0_16thread_data_baseES2_EEvPNS_10shared_ptrIT_EEPT0_RNS0_12shared_countE, symObjAddr: 0x763C, symBinAddr: 0x41894C, symSize: 0x104 }
  - { offset: 0x3EDEE1, size: 0x8, addend: 0x0, symName: __ZN5boost6detail20sp_pointer_constructINS0_16thread_data_baseES2_EEvPNS_10shared_ptrIT_EEPT0_RNS0_12shared_countE, symObjAddr: 0x763C, symBinAddr: 0x41894C, symSize: 0x104 }
  - { offset: 0x3EDEFE, size: 0x8, addend: 0x0, symName: __ZN5boost6detail20sp_pointer_constructINS0_16thread_data_baseES2_EEvPNS_10shared_ptrIT_EEPT0_RNS0_12shared_countE, symObjAddr: 0x763C, symBinAddr: 0x41894C, symSize: 0x104 }
  - { offset: 0x3EDF1B, size: 0x8, addend: 0x0, symName: __ZN5boost6detail20sp_pointer_constructINS0_16thread_data_baseES2_EEvPNS_10shared_ptrIT_EEPT0_RNS0_12shared_countE, symObjAddr: 0x763C, symBinAddr: 0x41894C, symSize: 0x104 }
  - { offset: 0x3EE059, size: 0x8, addend: 0x0, symName: __ZN5boost6detail17sp_counted_impl_pINS0_16thread_data_baseEED1Ev, symObjAddr: 0x7740, symBinAddr: 0x418A50, symSize: 0x4 }
  - { offset: 0x3EE061, size: 0x8, addend: 0x0, symName: __ZN5boost6detail17sp_counted_impl_pINS0_16thread_data_baseEED0Ev, symObjAddr: 0x7744, symBinAddr: 0x418A54, symSize: 0x4 }
  - { offset: 0x3EE092, size: 0x8, addend: 0x0, symName: __ZN5boost6detail17sp_counted_impl_pINS0_16thread_data_baseEED0Ev, symObjAddr: 0x7744, symBinAddr: 0x418A54, symSize: 0x4 }
  - { offset: 0x3EE09A, size: 0x8, addend: 0x0, symName: __ZN5boost6detail17sp_counted_impl_pINS0_16thread_data_baseEE7disposeEv, symObjAddr: 0x7748, symBinAddr: 0x418A58, symSize: 0x18 }
  - { offset: 0x3EE0CB, size: 0x8, addend: 0x0, symName: __ZN5boost6detail17sp_counted_impl_pINS0_16thread_data_baseEE7disposeEv, symObjAddr: 0x7748, symBinAddr: 0x418A58, symSize: 0x18 }
  - { offset: 0x3EE0D3, size: 0x8, addend: 0x0, symName: __ZN5boost6detail17sp_counted_impl_pINS0_16thread_data_baseEE11get_deleterERKSt9type_info, symObjAddr: 0x7760, symBinAddr: 0x418A70, symSize: 0x8 }
  - { offset: 0x3EE12A, size: 0x8, addend: 0x0, symName: __ZN5boost6detail17sp_counted_impl_pINS0_16thread_data_baseEE11get_deleterERKSt9type_info, symObjAddr: 0x7760, symBinAddr: 0x418A70, symSize: 0x8 }
  - { offset: 0x3EE132, size: 0x8, addend: 0x0, symName: __ZN5boost6detail17sp_counted_impl_pINS0_16thread_data_baseEE17get_local_deleterERKSt9type_info, symObjAddr: 0x7768, symBinAddr: 0x418A78, symSize: 0x8 }
  - { offset: 0x3EE16D, size: 0x8, addend: 0x0, symName: __ZN5boost6detail17sp_counted_impl_pINS0_16thread_data_baseEE17get_local_deleterERKSt9type_info, symObjAddr: 0x7768, symBinAddr: 0x418A78, symSize: 0x8 }
  - { offset: 0x3EE175, size: 0x8, addend: 0x0, symName: __ZN5boost6detail17sp_counted_impl_pINS0_16thread_data_baseEE19get_untyped_deleterEv, symObjAddr: 0x7770, symBinAddr: 0x418A80, symSize: 0x8 }
  - { offset: 0x3EE1B0, size: 0x8, addend: 0x0, symName: __ZN5boost6detail17sp_counted_impl_pINS0_16thread_data_baseEE19get_untyped_deleterEv, symObjAddr: 0x7770, symBinAddr: 0x418A80, symSize: 0x8 }
  - { offset: 0x3EE1B8, size: 0x8, addend: 0x0, symName: __ZNK5boost23enable_shared_from_thisINS_6detail16thread_data_baseEE22_internal_accept_ownerIS2_S2_EEvPKNS_10shared_ptrIT_EEPT0_, symObjAddr: 0x7778, symBinAddr: 0x418A88, symSize: 0x110 }
  - { offset: 0x3EE3A8, size: 0x8, addend: 0x0, symName: __ZNK5boost23enable_shared_from_thisINS_6detail16thread_data_baseEE22_internal_accept_ownerIS2_S2_EEvPKNS_10shared_ptrIT_EEPT0_, symObjAddr: 0x7778, symBinAddr: 0x418A88, symSize: 0x110 }
  - { offset: 0x3F1DB6, size: 0x8, addend: 0x0, symName: __MergedGlobals, symObjAddr: 0x238, symBinAddr: 0x1220240, symSize: 0x0 }
  - { offset: 0x3F1DD6, size: 0x8, addend: 0x0, symName: __MergedGlobals, symObjAddr: 0x238, symBinAddr: 0x1220240, symSize: 0x0 }
  - { offset: 0x3F1DF3, size: 0x8, addend: 0x0, symName: __ZN5boost13thread_detail17enter_once_regionERNS_9once_flagE, symObjAddr: 0x0, symBinAddr: 0x418C50, symSize: 0x108 }
  - { offset: 0x3F205C, size: 0x8, addend: 0x0, symName: __ZN5boost13thread_detail18commit_once_regionERNS_9once_flagE, symObjAddr: 0x118, symBinAddr: 0x418D58, symSize: 0x6C }
  - { offset: 0x3F2064, size: 0x8, addend: 0x0, symName: __ZN5boost13thread_detail20rollback_once_regionERNS_9once_flagE, symObjAddr: 0x184, symBinAddr: 0x418DC4, symSize: 0x68 }
  - { offset: 0x3F221F, size: 0x8, addend: 0x0, symName: __ZN5boost13thread_detail20rollback_once_regionERNS_9once_flagE, symObjAddr: 0x184, symBinAddr: 0x418DC4, symSize: 0x68 }
...
